ARM GAS  C:\Users\micke\AppData\Local\Temp\cc52QvG4.s 			page 1


   1              		.cpu cortex-m7
   2              		.eabi_attribute 28, 1
   3              		.eabi_attribute 20, 1
   4              		.eabi_attribute 21, 1
   5              		.eabi_attribute 23, 3
   6              		.eabi_attribute 24, 1
   7              		.eabi_attribute 25, 1
   8              		.eabi_attribute 26, 1
   9              		.eabi_attribute 30, 2
  10              		.eabi_attribute 34, 1
  11              		.eabi_attribute 18, 4
  12              		.file	"Equalizer.cpp"
  13              		.text
  14              	.Ltext0:
  15              		.cfi_sections	.debug_frame
  16              		.section	.text._ZN9EqualizerD2Ev,"ax",%progbits
  17              		.align	1
  18              		.p2align 2,,3
  19              		.global	_ZN9EqualizerD2Ev
  20              		.arch armv7e-m
  21              		.syntax unified
  22              		.thumb
  23              		.thumb_func
  24              		.fpu fpv5-d16
  26              	_ZN9EqualizerD2Ev:
  27              	.LVL0:
  28              	.LFB550:
  29              		.file 1 "Equalizer.cpp"
   1:Equalizer.cpp **** ///////////////////////////////////////////////////////////
   2:Equalizer.cpp **** //  Equalizer.cpp
   3:Equalizer.cpp **** //  Implementation of the Class Equalizer
   4:Equalizer.cpp **** //  Created on:      06-aug-2014 09:31:01
   5:Equalizer.cpp **** //  Modified:        28-feb-2018 09:32:00
   6:Equalizer.cpp **** //  Modified:        27-nov-2025 20:01:00
   7:Equalizer.cpp **** //  Original author: kbe
   8:Equalizer.cpp **** ///////////////////////////////////////////////////////////
   9:Equalizer.cpp **** #include "Equalizer.h"
  10:Equalizer.cpp **** 
  11:Equalizer.cpp **** #include <stdio.h>
  12:Equalizer.cpp **** #include <string.h>
  13:Equalizer.cpp **** #include <stdfix.h>
  14:Equalizer.cpp **** 
  15:Equalizer.cpp **** Equalizer::Equalizer()
  16:Equalizer.cpp **** {
  17:Equalizer.cpp **** 
  18:Equalizer.cpp **** 	filterOn_ = true;
  19:Equalizer.cpp **** }
  20:Equalizer.cpp **** 
  21:Equalizer.cpp **** Equalizer::~Equalizer()
  30              		.loc 1 21 1 view -0
  31              		.cfi_startproc
  32              		@ args = 0, pretend = 0, frame = 0
  33              		@ frame_needed = 0, uses_anonymous_args = 0
  34              		.loc 1 21 1 is_stmt 0 view .LVU1
  35 0000 70B5     		push	{r4, r5, r6, lr}
  36              		.cfi_def_cfa_offset 16
  37              		.cfi_offset 4, -16
ARM GAS  C:\Users\micke\AppData\Local\Temp\cc52QvG4.s 			page 2


  38              		.cfi_offset 5, -12
  39              		.cfi_offset 6, -8
  40              		.cfi_offset 14, -4
  41              	.LBB8:
  42              		.loc 1 21 23 view .LVU2
  43 0002 094B     		ldr	r3, .L6
  44 0004 0446     		mov	r4, r0
  45              	.LBE8:
  46              		.loc 1 21 1 view .LVU3
  47 0006 0546     		mov	r5, r0
  48 0008 00F14C06 		add	r6, r0, #76
  49              	.LBB9:
  50              		.loc 1 21 23 view .LVU4
  51 000c 44F8FC3B 		str	r3, [r4], #252
  52              	.LVL1:
  53              	.L2:
  54              		.loc 1 21 23 discriminator 5 view .LVU5
  55 0010 54F82C3D 		ldr	r3, [r4, #-44]!
  56 0014 1B68     		ldr	r3, [r3]
  57 0016 2046     		mov	r0, r4
  58 0018 9847     		blx	r3
  59              	.LVL2:
  60 001a A642     		cmp	r6, r4
  61 001c F8D1     		bne	.L2
  62              		.loc 1 21 23 discriminator 7 view .LVU6
  63 001e 2846     		mov	r0, r5
  64 0020 FFF7FEFF 		bl	_ZN9AlgorithmD2Ev
  65              	.LVL3:
  66              	.LBE9:
  22:Equalizer.cpp **** {
  23:Equalizer.cpp **** 
  24:Equalizer.cpp **** }
  67              		.loc 1 24 1 discriminator 7 view .LVU7
  68 0024 2846     		mov	r0, r5
  69 0026 70BD     		pop	{r4, r5, r6, pc}
  70              	.LVL4:
  71              	.L7:
  72              		.loc 1 24 1 discriminator 7 view .LVU8
  73              		.align	2
  74              	.L6:
  75 0028 08000000 		.word	.LANCHOR0+8
  76              		.cfi_endproc
  77              	.LFE550:
  79              		.global	_ZN9EqualizerD1Ev
  80              		.thumb_set _ZN9EqualizerD1Ev,_ZN9EqualizerD2Ev
  81              		.section	.text._ZN9Equalizer7ProcessEf,"ax",%progbits
  82              		.align	1
  83              		.p2align 2,,3
  84              		.global	_ZN9Equalizer7ProcessEf
  85              		.syntax unified
  86              		.thumb
  87              		.thumb_func
  88              		.fpu fpv5-d16
  90              	_ZN9Equalizer7ProcessEf:
  91              	.LVL5:
  92              	.LFB553:
  25:Equalizer.cpp **** 
ARM GAS  C:\Users\micke\AppData\Local\Temp\cc52QvG4.s 			page 3


  26:Equalizer.cpp **** float Equalizer::Process(float input)
  27:Equalizer.cpp **** {
  93              		.loc 1 27 1 is_stmt 1 view -0
  94              		.cfi_startproc
  95              		@ args = 0, pretend = 0, frame = 0
  96              		@ frame_needed = 0, uses_anonymous_args = 0
  28:Equalizer.cpp **** 	if (!filterOn_) return input;
  97              		.loc 1 28 2 view .LVU10
  27:Equalizer.cpp **** 	if (!filterOn_) return input;
  98              		.loc 1 27 1 is_stmt 0 view .LVU11
  99 0000 38B5     		push	{r3, r4, r5, lr}
 100              		.cfi_def_cfa_offset 16
 101              		.cfi_offset 3, -16
 102              		.cfi_offset 4, -12
 103              		.cfi_offset 5, -8
 104              		.cfi_offset 14, -4
 105              		.loc 1 28 2 view .LVU12
 106 0002 037A     		ldrb	r3, [r0, #8]	@ zero_extendqisi2
 107 0004 53B1     		cbz	r3, .L8
 108 0006 00F13C05 		add	r5, r0, #60
 109 000a 00F14C04 		add	r4, r0, #76
 110              	.LVL6:
 111              	.L10:
 112              	.LBB14:
 113              	.LBB15:
 114              	.LBB16:
  29:Equalizer.cpp **** 
  30:Equalizer.cpp ****     float signal = input;
  31:Equalizer.cpp ****     for (int i = 0; i < NUM_EQ_BANDS; i++) {
  32:Equalizer.cpp ****         signal = m_filters[i]->Process(signal);  
 115              		.loc 1 32 9 is_stmt 1 view .LVU13
 116              		.loc 1 32 29 is_stmt 0 view .LVU14
 117 000e 55F8040B 		ldr	r0, [r5], #4
 118              		.loc 1 32 46 view .LVU15
 119 0012 0368     		ldr	r3, [r0]
 120              		.loc 1 32 39 view .LVU16
 121 0014 9B68     		ldr	r3, [r3, #8]
 122 0016 9847     		blx	r3
 123              	.LVL7:
  31:Equalizer.cpp ****         signal = m_filters[i]->Process(signal);  
 124              		.loc 1 31 5 is_stmt 1 view .LVU17
  31:Equalizer.cpp ****         signal = m_filters[i]->Process(signal);  
 125              		.loc 1 31 23 view .LVU18
 126 0018 A542     		cmp	r5, r4
 127 001a F8D1     		bne	.L10
 128              	.LVL8:
 129              	.L8:
  31:Equalizer.cpp ****         signal = m_filters[i]->Process(signal);  
 130              		.loc 1 31 23 is_stmt 0 view .LVU19
 131              	.LBE16:
 132              	.LBE15:
 133              	.LBE14:
  33:Equalizer.cpp ****     }
  34:Equalizer.cpp ****     return signal;
  35:Equalizer.cpp **** }
 134              		.loc 1 35 1 view .LVU20
 135 001c 38BD     		pop	{r3, r4, r5, pc}
ARM GAS  C:\Users\micke\AppData\Local\Temp\cc52QvG4.s 			page 4


 136              		.cfi_endproc
 137              	.LFE553:
 139 001e 00BF     		.section	.text._ZN9EqualizerD0Ev,"ax",%progbits
 140              		.align	1
 141              		.p2align 2,,3
 142              		.global	_ZN9EqualizerD0Ev
 143              		.syntax unified
 144              		.thumb
 145              		.thumb_func
 146              		.fpu fpv5-d16
 148              	_ZN9EqualizerD0Ev:
 149              	.LVL9:
 150              	.LFB552:
  21:Equalizer.cpp **** {
 151              		.loc 1 21 1 is_stmt 1 view -0
 152              		.cfi_startproc
 153              		@ args = 0, pretend = 0, frame = 0
 154              		@ frame_needed = 0, uses_anonymous_args = 0
  21:Equalizer.cpp **** {
 155              		.loc 1 21 1 is_stmt 0 view .LVU22
 156 0000 70B5     		push	{r4, r5, r6, lr}
 157              		.cfi_def_cfa_offset 16
 158              		.cfi_offset 4, -16
 159              		.cfi_offset 5, -12
 160              		.cfi_offset 6, -8
 161              		.cfi_offset 14, -4
 162              	.LBB20:
 163              	.LBB21:
  21:Equalizer.cpp **** {
 164              		.loc 1 21 23 view .LVU23
 165 0002 0B4B     		ldr	r3, .L18
 166 0004 0446     		mov	r4, r0
 167              	.LBE21:
 168              	.LBE20:
  21:Equalizer.cpp **** {
 169              		.loc 1 21 1 view .LVU24
 170 0006 0546     		mov	r5, r0
 171              	.LVL10:
 172              	.LBB23:
 173              	.LBI20:
  21:Equalizer.cpp **** {
 174              		.loc 1 21 1 is_stmt 1 view .LVU25
 175 0008 00F14C06 		add	r6, r0, #76
 176              	.LBB22:
  21:Equalizer.cpp **** {
 177              		.loc 1 21 23 is_stmt 0 view .LVU26
 178 000c 44F8FC3B 		str	r3, [r4], #252
 179              	.LVL11:
 180              	.L15:
  21:Equalizer.cpp **** {
 181              		.loc 1 21 23 view .LVU27
 182 0010 54F82C3D 		ldr	r3, [r4, #-44]!
 183 0014 1B68     		ldr	r3, [r3]
 184 0016 2046     		mov	r0, r4
 185 0018 9847     		blx	r3
 186              	.LVL12:
 187 001a A642     		cmp	r6, r4
ARM GAS  C:\Users\micke\AppData\Local\Temp\cc52QvG4.s 			page 5


 188 001c F8D1     		bne	.L15
 189 001e 2846     		mov	r0, r5
 190 0020 FFF7FEFF 		bl	_ZN9AlgorithmD2Ev
 191              	.LVL13:
  21:Equalizer.cpp **** {
 192              		.loc 1 21 23 view .LVU28
 193              	.LBE22:
 194              	.LBE23:
  24:Equalizer.cpp **** 
 195              		.loc 1 24 1 view .LVU29
 196 0024 2846     		mov	r0, r5
 197 0026 FC21     		movs	r1, #252
 198 0028 FFF7FEFF 		bl	_ZdlPvj
 199              	.LVL14:
 200 002c 2846     		mov	r0, r5
 201 002e 70BD     		pop	{r4, r5, r6, pc}
 202              	.LVL15:
 203              	.L19:
  24:Equalizer.cpp **** 
 204              		.loc 1 24 1 view .LVU30
 205              		.align	2
 206              	.L18:
 207 0030 08000000 		.word	.LANCHOR0+8
 208              		.cfi_endproc
 209              	.LFE552:
 211              		.section	.text._ZN9EqualizerC2Ev,"ax",%progbits
 212              		.align	1
 213              		.p2align 2,,3
 214              		.global	_ZN9EqualizerC2Ev
 215              		.syntax unified
 216              		.thumb
 217              		.thumb_func
 218              		.fpu fpv5-d16
 220              	_ZN9EqualizerC2Ev:
 221              	.LVL16:
 222              	.LFB547:
  15:Equalizer.cpp **** {
 223              		.loc 1 15 1 is_stmt 1 view -0
 224              		.cfi_startproc
 225              		@ args = 0, pretend = 0, frame = 0
 226              		@ frame_needed = 0, uses_anonymous_args = 0
  15:Equalizer.cpp **** {
 227              		.loc 1 15 1 is_stmt 0 view .LVU32
 228 0000 70B5     		push	{r4, r5, r6, lr}
 229              		.cfi_def_cfa_offset 16
 230              		.cfi_offset 4, -16
 231              		.cfi_offset 5, -12
 232              		.cfi_offset 6, -8
 233              		.cfi_offset 14, -4
  15:Equalizer.cpp **** {
 234              		.loc 1 15 1 view .LVU33
 235 0002 0546     		mov	r5, r0
 236              	.LBB24:
  15:Equalizer.cpp **** {
 237              		.loc 1 15 22 view .LVU34
 238 0004 FFF7FEFF 		bl	_ZN9AlgorithmC2Ev
 239              	.LVL17:
ARM GAS  C:\Users\micke\AppData\Local\Temp\cc52QvG4.s 			page 6


  15:Equalizer.cpp **** {
 240              		.loc 1 15 22 view .LVU35
 241 0008 074B     		ldr	r3, .L24
 242 000a 2C46     		mov	r4, r5
 243 000c 05F1FC06 		add	r6, r5, #252
 244 0010 44F84C3B 		str	r3, [r4], #76
  15:Equalizer.cpp **** {
 245              		.loc 1 15 22 is_stmt 1 view .LVU36
 246              	.L21:
  15:Equalizer.cpp **** {
 247              		.loc 1 15 22 is_stmt 0 discriminator 3 view .LVU37
 248 0014 2046     		mov	r0, r4
 249 0016 2C34     		adds	r4, r4, #44
 250 0018 FFF7FEFF 		bl	_ZN9IIRFilterC1Ev
 251              	.LVL18:
  15:Equalizer.cpp **** {
 252              		.loc 1 15 22 is_stmt 1 discriminator 3 view .LVU38
  15:Equalizer.cpp **** {
 253              		.loc 1 15 22 discriminator 3 view .LVU39
 254 001c A642     		cmp	r6, r4
 255 001e F9D1     		bne	.L21
  18:Equalizer.cpp **** }
 256              		.loc 1 18 2 discriminator 2 view .LVU40
  18:Equalizer.cpp **** }
 257              		.loc 1 18 12 is_stmt 0 discriminator 2 view .LVU41
 258 0020 0123     		movs	r3, #1
 259              	.LBE24:
  19:Equalizer.cpp **** 
 260              		.loc 1 19 1 discriminator 2 view .LVU42
 261 0022 2846     		mov	r0, r5
 262              	.LBB25:
  18:Equalizer.cpp **** }
 263              		.loc 1 18 12 discriminator 2 view .LVU43
 264 0024 2B72     		strb	r3, [r5, #8]
 265              	.LBE25:
  19:Equalizer.cpp **** 
 266              		.loc 1 19 1 discriminator 2 view .LVU44
 267 0026 70BD     		pop	{r4, r5, r6, pc}
 268              	.LVL19:
 269              	.L25:
  19:Equalizer.cpp **** 
 270              		.loc 1 19 1 discriminator 2 view .LVU45
 271              		.align	2
 272              	.L24:
 273 0028 08000000 		.word	.LANCHOR0+8
 274              		.cfi_endproc
 275              	.LFE547:
 277              		.global	_ZN9EqualizerC1Ev
 278              		.thumb_set _ZN9EqualizerC1Ev,_ZN9EqualizerC2Ev
 279              		.section	.text._ZN9Equalizer18updateEQParametersEs,"ax",%progbits
 280              		.align	1
 281              		.p2align 2,,3
 282              		.global	_ZN9Equalizer18updateEQParametersEs
 283              		.syntax unified
 284              		.thumb
 285              		.thumb_func
 286              		.fpu fpv5-d16
ARM GAS  C:\Users\micke\AppData\Local\Temp\cc52QvG4.s 			page 7


 288              	_ZN9Equalizer18updateEQParametersEs:
 289              	.LVL20:
 290              	.LFB558:
  36:Equalizer.cpp **** 
  37:Equalizer.cpp **** void Equalizer::Init(int sampleRate)
  38:Equalizer.cpp **** {
  39:Equalizer.cpp **** 	sampleRate_ = sampleRate;
  40:Equalizer.cpp **** 
  41:Equalizer.cpp **** 	// KBE changed to update filters
  42:Equalizer.cpp **** 	// Setting default peak bands center frequency
  43:Equalizer.cpp **** 	m_EQParams[0].fc = 100.0;
  44:Equalizer.cpp **** 	m_EQParams[0].gain = 5.0;
  45:Equalizer.cpp **** 	m_EQParams[1].fc = 500.0;
  46:Equalizer.cpp **** 	m_EQParams[1].gain = 2.0; 
  47:Equalizer.cpp **** 	m_EQParams[2].fc = 2000.0;
  48:Equalizer.cpp **** 	m_EQParams[2].gain = 0.5; 
  49:Equalizer.cpp **** 	m_EQParams[3].fc = 8000.0;
  50:Equalizer.cpp **** 	m_EQParams[3].gain = 2.0; 
  51:Equalizer.cpp **** 
  52:Equalizer.cpp **** 	for (short band = 0; band < NUM_EQ_BANDS; band++)
  53:Equalizer.cpp **** 	{
  54:Equalizer.cpp **** 		m_IIRfilter[band].Init();
  55:Equalizer.cpp **** 	    //m_EQParams[band].gain = 1.0; // Default gain
  56:Equalizer.cpp **** 		m_EQParams[band].Q = 8.0; // Default Q
  57:Equalizer.cpp **** 		m_filters[band] = &m_IIRfilter[band];
  58:Equalizer.cpp **** 		updateEQParameters(band);
  59:Equalizer.cpp **** 	}
  60:Equalizer.cpp **** }
  61:Equalizer.cpp **** 
  62:Equalizer.cpp **** float Equalizer::incParameter(short band, PARAMETER param, float delta)
  63:Equalizer.cpp **** {
  64:Equalizer.cpp **** 	// TODO change code to increment parameter for IIR filters (See slides) - call updateEQParamters
  65:Equalizer.cpp ****     //m_filterOn = true; // For test only
  66:Equalizer.cpp ****     setParameter(band, param, m_EQParams[band].gain + delta);
  67:Equalizer.cpp **** 	return m_EQParams[band].gain;
  68:Equalizer.cpp **** }
  69:Equalizer.cpp **** 
  70:Equalizer.cpp **** float Equalizer::decParameter(short band, PARAMETER param, float delta)
  71:Equalizer.cpp **** {
  72:Equalizer.cpp **** 	// TODO change code to decrement parameter for IIR filters - call updateEQParamters
  73:Equalizer.cpp ****     //m_filterOn = false; // For test only
  74:Equalizer.cpp ****     setParameter(band, param, m_EQParams[band].gain - delta);
  75:Equalizer.cpp **** 	return m_EQParams[band].gain;
  76:Equalizer.cpp **** }
  77:Equalizer.cpp **** 
  78:Equalizer.cpp **** void Equalizer::setParameter(short band, PARAMETER param, float value)
  79:Equalizer.cpp **** {
  80:Equalizer.cpp ****     bool update = false;
  81:Equalizer.cpp **** 
  82:Equalizer.cpp **** 	if (band < NUM_EQ_BANDS)
  83:Equalizer.cpp **** 	{
  84:Equalizer.cpp **** 		switch (param)
  85:Equalizer.cpp **** 		{
  86:Equalizer.cpp **** 			case PM_GAIN:
  87:Equalizer.cpp **** 				if (m_EQParams[band].gain != value) {
  88:Equalizer.cpp **** 					m_EQParams[band].gain = value;
  89:Equalizer.cpp **** 					update = true;
ARM GAS  C:\Users\micke\AppData\Local\Temp\cc52QvG4.s 			page 8


  90:Equalizer.cpp **** 				}
  91:Equalizer.cpp **** 			  break;
  92:Equalizer.cpp **** 			case PM_FREQ:
  93:Equalizer.cpp **** 				if (m_EQParams[band].fc != value) {
  94:Equalizer.cpp **** 					m_EQParams[band].fc = value;
  95:Equalizer.cpp **** 					update = true;
  96:Equalizer.cpp **** 				}
  97:Equalizer.cpp **** 			  break;
  98:Equalizer.cpp **** 			case PM_Q:
  99:Equalizer.cpp **** 				if (m_EQParams[band].Q != value) {
 100:Equalizer.cpp **** 					m_EQParams[band].Q = value;
 101:Equalizer.cpp **** 					update = true;
 102:Equalizer.cpp **** 				}
 103:Equalizer.cpp **** 			  break;
 104:Equalizer.cpp **** 		}
 105:Equalizer.cpp **** 		if (update) updateEQParameters(band);
 106:Equalizer.cpp **** 	}
 107:Equalizer.cpp **** }
 108:Equalizer.cpp **** 
 109:Equalizer.cpp **** void Equalizer::updateEQParameters(short band)
 110:Equalizer.cpp **** {
 291              		.loc 1 110 1 is_stmt 1 view -0
 292              		.cfi_startproc
 293              		@ args = 0, pretend = 0, frame = 0
 294              		@ frame_needed = 0, uses_anonymous_args = 0
 295              		@ link register save eliminated.
 111:Equalizer.cpp **** 	// Parameter limitations
 112:Equalizer.cpp **** 	if (m_EQParams[band].gain > MAX_GAIN)
 296              		.loc 1 112 2 view .LVU47
 297              		.loc 1 112 23 is_stmt 0 view .LVU48
 298 0000 01EB4102 		add	r2, r1, r1, lsl #1
 299              		.loc 1 112 2 view .LVU49
 300 0004 F1EE047A 		vmov.f32	s15, #5.0e+0
 301              		.loc 1 112 23 view .LVU50
 302 0008 4B00     		lsls	r3, r1, #1
 303 000a 00EB8202 		add	r2, r0, r2, lsl #2
 304 000e 92ED037A 		vldr.32	s14, [r2, #12]
 305              		.loc 1 112 2 view .LVU51
 306 0012 B4EEE77A 		vcmpe.f32	s14, s15
 307 0016 F1EE10FA 		vmrs	APSR_nzcv, FPSCR
 308 001a 3EDD     		ble	.L45
 113:Equalizer.cpp **** 		m_EQParams[band].gain = MAX_GAIN;
 309              		.loc 1 113 3 is_stmt 1 view .LVU52
 310              		.loc 1 113 25 is_stmt 0 view .LVU53
 311 001c C2ED037A 		vstr.32	s15, [r2, #12]
 114:Equalizer.cpp **** 	if (m_EQParams[band].gain < MIN_GAIN)
 312              		.loc 1 114 2 is_stmt 1 view .LVU54
 313              	.L29:
 115:Equalizer.cpp **** 		m_EQParams[band].gain = MIN_GAIN;
 116:Equalizer.cpp **** 	if (m_EQParams[band].fc > MAX_FREQ)
 314              		.loc 1 116 2 view .LVU55
 315              		.loc 1 116 23 is_stmt 0 view .LVU56
 316 0020 5A18     		adds	r2, r3, r1
 317              		.loc 1 116 2 view .LVU57
 318 0022 9FED277A 		vldr.32	s14, .L50+8
 319              		.loc 1 116 23 view .LVU58
 320 0026 00EB8202 		add	r2, r0, r2, lsl #2
ARM GAS  C:\Users\micke\AppData\Local\Temp\cc52QvG4.s 			page 9


 321 002a D2ED047A 		vldr.32	s15, [r2, #16]
 322              		.loc 1 116 2 view .LVU59
 323 002e F4EEC77A 		vcmpe.f32	s15, s14
 324 0032 F1EE10FA 		vmrs	APSR_nzcv, FPSCR
 325 0036 06DC     		bgt	.L48
 117:Equalizer.cpp **** 		m_EQParams[band].fc = MAX_FREQ;
 118:Equalizer.cpp **** 	if (m_EQParams[band].fc < MIN_FREQ)
 326              		.loc 1 118 2 is_stmt 1 view .LVU60
 327 0038 B0EE007A 		vmov.f32	s14, #2.0e+0
 328 003c F4EEC77A 		vcmpe.f32	s15, s14
 329 0040 F1EE10FA 		vmrs	APSR_nzcv, FPSCR
 330 0044 01D5     		bpl	.L33
 331              	.L48:
 119:Equalizer.cpp **** 		m_EQParams[band].fc = MIN_FREQ;
 332              		.loc 1 119 3 view .LVU61
 333              		.loc 1 119 23 is_stmt 0 view .LVU62
 334 0046 82ED047A 		vstr.32	s14, [r2, #16]
 335              	.L33:
 120:Equalizer.cpp **** 	if (m_EQParams[band].Q > MAX_Q)
 336              		.loc 1 120 2 is_stmt 1 view .LVU63
 337              		.loc 1 120 23 is_stmt 0 view .LVU64
 338 004a 5A18     		adds	r2, r3, r1
 339              		.loc 1 120 2 view .LVU65
 340 004c F3EE047A 		vmov.f32	s15, #2.0e+1
 341              		.loc 1 120 23 view .LVU66
 342 0050 00EB8202 		add	r2, r0, r2, lsl #2
 343 0054 92ED051A 		vldr.32	s2, [r2, #20]
 344              		.loc 1 120 2 view .LVU67
 345 0058 B4EEE71A 		vcmpe.f32	s2, s15
 346 005c F1EE10FA 		vmrs	APSR_nzcv, FPSCR
 347 0060 06DC     		bgt	.L49
 121:Equalizer.cpp **** 		m_EQParams[band].Q = MAX_Q;
 122:Equalizer.cpp **** 	if (m_EQParams[band].Q < MIN_Q)
 348              		.loc 1 122 2 is_stmt 1 view .LVU68
 349 0062 F7EE007A 		vmov.f32	s15, #1.0e+0
 350 0066 B4EEE71A 		vcmpe.f32	s2, s15
 351 006a F1EE10FA 		vmrs	APSR_nzcv, FPSCR
 352 006e 03D5     		bpl	.L37
 353              	.L49:
 123:Equalizer.cpp **** 		m_EQParams[band].Q = MIN_Q;
 354              		.loc 1 123 3 view .LVU69
 355 0070 B0EE671A 		vmov.f32	s2, s15
 356              		.loc 1 123 22 is_stmt 0 view .LVU70
 357 0074 C2ED057A 		vstr.32	s15, [r2, #20]
 358              	.L37:
 124:Equalizer.cpp **** 
 125:Equalizer.cpp **** 	// Call creating peaking filter for IIR filter band
 126:Equalizer.cpp **** 	m_IIRfilter[band].makePeakEQ(sampleRate_,
 359              		.loc 1 126 2 is_stmt 1 view .LVU71
 360              		.loc 1 126 30 is_stmt 0 view .LVU72
 361 0078 0B44     		add	r3, r3, r1
 362 007a 2C22     		movs	r2, #44
 363 007c 90ED010A 		vldr.32	s0, [r0, #4]	@ int
 364 0080 00EB8303 		add	r3, r0, r3, lsl #2
 365 0084 01FB0200 		mla	r0, r1, r2, r0
 366              	.LVL21:
 367              		.loc 1 126 30 view .LVU73
ARM GAS  C:\Users\micke\AppData\Local\Temp\cc52QvG4.s 			page 10


 368 0088 B8EEC00A 		vcvt.f32.s32	s0, s0
 369 008c D3ED031A 		vldr.32	s3, [r3, #12]
 370 0090 4C30     		adds	r0, r0, #76
 371 0092 D3ED040A 		vldr.32	s1, [r3, #16]
 372 0096 FFF7FEBF 		b	_ZN9IIRFilter10makePeakEQEffff
 373              	.LVL22:
 374              	.L45:
 114:Equalizer.cpp **** 		m_EQParams[band].gain = MIN_GAIN;
 375              		.loc 1 114 2 is_stmt 1 view .LVU74
 114:Equalizer.cpp **** 		m_EQParams[band].gain = MIN_GAIN;
 376              		.loc 1 114 23 is_stmt 0 view .LVU75
 377 009a B7EEC77A 		vcvt.f64.f32	d7, s14
 114:Equalizer.cpp **** 		m_EQParams[band].gain = MIN_GAIN;
 378              		.loc 1 114 2 view .LVU76
 379 009e 9FED066B 		vldr.64	d6, .L50
 380 00a2 B4EEC67B 		vcmpe.f64	d7, d6
 381 00a6 F1EE10FA 		vmrs	APSR_nzcv, FPSCR
 382 00aa B9D5     		bpl	.L29
 115:Equalizer.cpp **** 	if (m_EQParams[band].fc > MAX_FREQ)
 383              		.loc 1 115 3 is_stmt 1 view .LVU77
 115:Equalizer.cpp **** 	if (m_EQParams[band].fc > MAX_FREQ)
 384              		.loc 1 115 25 is_stmt 0 view .LVU78
 385 00ac DFF814C0 		ldr	ip, .L50+12
 386 00b0 C2F80CC0 		str	ip, [r2, #12]	@ float
 387 00b4 B4E7     		b	.L29
 388              	.L51:
 389 00b6 00BF     		.align	3
 390              	.L50:
 391 00b8 9A999999 		.word	-1717986918
 392 00bc 9999B93F 		.word	1069128089
 393 00c0 00409C46 		.word	1184645120
 394 00c4 CDCCCC3D 		.word	1036831949
 395              		.cfi_endproc
 396              	.LFE558:
 398              		.section	.text._ZN9Equalizer4InitEi,"ax",%progbits
 399              		.align	1
 400              		.p2align 2,,3
 401              		.global	_ZN9Equalizer4InitEi
 402              		.syntax unified
 403              		.thumb
 404              		.thumb_func
 405              		.fpu fpv5-d16
 407              	_ZN9Equalizer4InitEi:
 408              	.LVL23:
 409              	.LFB554:
  38:Equalizer.cpp **** 	sampleRate_ = sampleRate;
 410              		.loc 1 38 1 is_stmt 1 view -0
 411              		.cfi_startproc
 412              		@ args = 0, pretend = 0, frame = 0
 413              		@ frame_needed = 0, uses_anonymous_args = 0
  39:Equalizer.cpp **** 
 414              		.loc 1 39 2 view .LVU80
  43:Equalizer.cpp **** 	m_EQParams[0].gain = 5.0;
 415              		.loc 1 43 19 is_stmt 0 view .LVU81
 416 0000 174A     		ldr	r2, .L56
  46:Equalizer.cpp **** 	m_EQParams[2].fc = 2000.0;
 417              		.loc 1 46 21 view .LVU82
ARM GAS  C:\Users\micke\AppData\Local\Temp\cc52QvG4.s 			page 11


 418 0002 4FF08043 		mov	r3, #1073741824
  38:Equalizer.cpp **** 	sampleRate_ = sampleRate;
 419              		.loc 1 38 1 view .LVU83
 420 0006 2DE9F041 		push	{r4, r5, r6, r7, r8, lr}
 421              		.cfi_def_cfa_offset 24
 422              		.cfi_offset 4, -24
 423              		.cfi_offset 5, -20
 424              		.cfi_offset 6, -16
 425              		.cfi_offset 7, -12
 426              		.cfi_offset 8, -8
 427              		.cfi_offset 14, -4
  38:Equalizer.cpp **** 	sampleRate_ = sampleRate;
 428              		.loc 1 38 1 view .LVU84
 429 000a 0546     		mov	r5, r0
  43:Equalizer.cpp **** 	m_EQParams[0].gain = 5.0;
 430              		.loc 1 43 19 view .LVU85
 431 000c 0261     		str	r2, [r0, #16]	@ float
  44:Equalizer.cpp **** 	m_EQParams[1].fc = 500.0;
 432              		.loc 1 44 21 view .LVU86
 433 000e 154E     		ldr	r6, .L56+4
  48:Equalizer.cpp **** 	m_EQParams[3].fc = 8000.0;
 434              		.loc 1 48 21 view .LVU87
 435 0010 4FF07C54 		mov	r4, #1056964608
  45:Equalizer.cpp **** 	m_EQParams[1].gain = 2.0; 
 436              		.loc 1 45 19 view .LVU88
 437 0014 144A     		ldr	r2, .L56+8
 438 0016 2F46     		mov	r7, r5
  44:Equalizer.cpp **** 	m_EQParams[1].fc = 500.0;
 439              		.loc 1 44 21 view .LVU89
 440 0018 C660     		str	r6, [r0, #12]	@ float
 441 001a 05F13C08 		add	r8, r5, #60
  48:Equalizer.cpp **** 	m_EQParams[3].fc = 8000.0;
 442              		.loc 1 48 21 view .LVU90
 443 001e 4462     		str	r4, [r0, #36]	@ float
  50:Equalizer.cpp **** 
 444              		.loc 1 50 21 view .LVU91
 445 0020 0026     		movs	r6, #0
  47:Equalizer.cpp **** 	m_EQParams[2].gain = 0.5; 
 446              		.loc 1 47 19 view .LVU92
 447 0022 1248     		ldr	r0, .L56+12
 448              	.LVL24:
  47:Equalizer.cpp **** 	m_EQParams[2].gain = 0.5; 
 449              		.loc 1 47 19 view .LVU93
 450 0024 05F14C04 		add	r4, r5, #76
  45:Equalizer.cpp **** 	m_EQParams[1].gain = 2.0; 
 451              		.loc 1 45 19 view .LVU94
 452 0028 EA61     		str	r2, [r5, #28]	@ float
  49:Equalizer.cpp **** 	m_EQParams[3].gain = 2.0; 
 453              		.loc 1 49 19 view .LVU95
 454 002a 114A     		ldr	r2, .L56+16
  39:Equalizer.cpp **** 
 455              		.loc 1 39 14 view .LVU96
 456 002c 6960     		str	r1, [r5, #4]
  43:Equalizer.cpp **** 	m_EQParams[0].gain = 5.0;
 457              		.loc 1 43 2 is_stmt 1 view .LVU97
  44:Equalizer.cpp **** 	m_EQParams[1].fc = 500.0;
 458              		.loc 1 44 2 view .LVU98
ARM GAS  C:\Users\micke\AppData\Local\Temp\cc52QvG4.s 			page 12


  45:Equalizer.cpp **** 	m_EQParams[1].gain = 2.0; 
 459              		.loc 1 45 2 view .LVU99
  46:Equalizer.cpp **** 	m_EQParams[2].fc = 2000.0;
 460              		.loc 1 46 2 view .LVU100
  46:Equalizer.cpp **** 	m_EQParams[2].fc = 2000.0;
 461              		.loc 1 46 21 is_stmt 0 view .LVU101
 462 002e AB61     		str	r3, [r5, #24]	@ float
  47:Equalizer.cpp **** 	m_EQParams[2].gain = 0.5; 
 463              		.loc 1 47 2 is_stmt 1 view .LVU102
  47:Equalizer.cpp **** 	m_EQParams[2].gain = 0.5; 
 464              		.loc 1 47 19 is_stmt 0 view .LVU103
 465 0030 A862     		str	r0, [r5, #40]	@ float
  48:Equalizer.cpp **** 	m_EQParams[3].fc = 8000.0;
 466              		.loc 1 48 2 is_stmt 1 view .LVU104
  49:Equalizer.cpp **** 	m_EQParams[3].gain = 2.0; 
 467              		.loc 1 49 2 view .LVU105
  49:Equalizer.cpp **** 	m_EQParams[3].gain = 2.0; 
 468              		.loc 1 49 19 is_stmt 0 view .LVU106
 469 0032 6A63     		str	r2, [r5, #52]	@ float
  50:Equalizer.cpp **** 
 470              		.loc 1 50 2 is_stmt 1 view .LVU107
  50:Equalizer.cpp **** 
 471              		.loc 1 50 21 is_stmt 0 view .LVU108
 472 0034 2B63     		str	r3, [r5, #48]	@ float
  52:Equalizer.cpp **** 	{
 473              		.loc 1 52 2 is_stmt 1 view .LVU109
 474              	.LVL25:
 475              	.LBB26:
  52:Equalizer.cpp **** 	{
 476              		.loc 1 52 28 view .LVU110
 477              	.L53:
  54:Equalizer.cpp **** 	    //m_EQParams[band].gain = 1.0; // Default gain
 478              		.loc 1 54 3 discriminator 2 view .LVU111
  54:Equalizer.cpp **** 	    //m_EQParams[band].gain = 1.0; // Default gain
 479              		.loc 1 54 26 is_stmt 0 discriminator 2 view .LVU112
 480 0036 2368     		ldr	r3, [r4]
  54:Equalizer.cpp **** 	    //m_EQParams[band].gain = 1.0; // Default gain
 481              		.loc 1 54 25 discriminator 2 view .LVU113
 482 0038 2046     		mov	r0, r4
  52:Equalizer.cpp **** 	{
 483              		.loc 1 52 28 discriminator 2 view .LVU114
 484 003a 0C37     		adds	r7, r7, #12
  54:Equalizer.cpp **** 	    //m_EQParams[band].gain = 1.0; // Default gain
 485              		.loc 1 54 25 discriminator 2 view .LVU115
 486 003c DB68     		ldr	r3, [r3, #12]
 487 003e 9847     		blx	r3
 488              	.LVL26:
  56:Equalizer.cpp **** 		m_filters[band] = &m_IIRfilter[band];
 489              		.loc 1 56 3 is_stmt 1 discriminator 2 view .LVU116
  56:Equalizer.cpp **** 		m_filters[band] = &m_IIRfilter[band];
 490              		.loc 1 56 22 is_stmt 0 discriminator 2 view .LVU117
 491 0040 4FF08243 		mov	r3, #1090519040
  58:Equalizer.cpp **** 	}
 492              		.loc 1 58 21 discriminator 2 view .LVU118
 493 0044 31B2     		sxth	r1, r6
  52:Equalizer.cpp **** 	{
 494              		.loc 1 52 28 discriminator 2 view .LVU119
ARM GAS  C:\Users\micke\AppData\Local\Temp\cc52QvG4.s 			page 13


 495 0046 0136     		adds	r6, r6, #1
 496              	.LVL27:
  56:Equalizer.cpp **** 		m_filters[band] = &m_IIRfilter[band];
 497              		.loc 1 56 22 discriminator 2 view .LVU120
 498 0048 BB60     		str	r3, [r7, #8]	@ float
  57:Equalizer.cpp **** 		updateEQParameters(band);
 499              		.loc 1 57 3 is_stmt 1 discriminator 2 view .LVU121
  58:Equalizer.cpp **** 	}
 500              		.loc 1 58 21 is_stmt 0 discriminator 2 view .LVU122
 501 004a 2846     		mov	r0, r5
  57:Equalizer.cpp **** 		updateEQParameters(band);
 502              		.loc 1 57 19 discriminator 2 view .LVU123
 503 004c 48F8044B 		str	r4, [r8], #4
  58:Equalizer.cpp **** 	}
 504              		.loc 1 58 3 is_stmt 1 discriminator 2 view .LVU124
  52:Equalizer.cpp **** 	{
 505              		.loc 1 52 28 is_stmt 0 discriminator 2 view .LVU125
 506 0050 2C34     		adds	r4, r4, #44
  58:Equalizer.cpp **** 	}
 507              		.loc 1 58 21 discriminator 2 view .LVU126
 508 0052 FFF7FEFF 		bl	_ZN9Equalizer18updateEQParametersEs
 509              	.LVL28:
  52:Equalizer.cpp **** 	{
 510              		.loc 1 52 2 is_stmt 1 discriminator 2 view .LVU127
  52:Equalizer.cpp **** 	{
 511              		.loc 1 52 28 discriminator 2 view .LVU128
 512 0056 042E     		cmp	r6, #4
 513 0058 EDD1     		bne	.L53
 514              	.LBE26:
  60:Equalizer.cpp **** 
 515              		.loc 1 60 1 is_stmt 0 view .LVU129
 516 005a BDE8F081 		pop	{r4, r5, r6, r7, r8, pc}
 517              	.LVL29:
 518              	.L57:
  60:Equalizer.cpp **** 
 519              		.loc 1 60 1 view .LVU130
 520 005e 00BF     		.align	2
 521              	.L56:
 522 0060 0000C842 		.word	1120403456
 523 0064 0000A040 		.word	1084227584
 524 0068 0000FA43 		.word	1140457472
 525 006c 0000FA44 		.word	1157234688
 526 0070 0000FA45 		.word	1174011904
 527              		.cfi_endproc
 528              	.LFE554:
 530              		.section	.text._ZN9Equalizer12decParameterEs9PARAMETERf,"ax",%progbits
 531              		.align	1
 532              		.p2align 2,,3
 533              		.global	_ZN9Equalizer12decParameterEs9PARAMETERf
 534              		.syntax unified
 535              		.thumb
 536              		.thumb_func
 537              		.fpu fpv5-d16
 539              	_ZN9Equalizer12decParameterEs9PARAMETERf:
 540              	.LVL30:
 541              	.LFB556:
  71:Equalizer.cpp **** 	// TODO change code to decrement parameter for IIR filters - call updateEQParamters
ARM GAS  C:\Users\micke\AppData\Local\Temp\cc52QvG4.s 			page 14


 542              		.loc 1 71 1 is_stmt 1 view -0
 543              		.cfi_startproc
 544              		@ args = 0, pretend = 0, frame = 0
 545              		@ frame_needed = 0, uses_anonymous_args = 0
  74:Equalizer.cpp **** 	return m_EQParams[band].gain;
 546              		.loc 1 74 5 view .LVU132
  74:Equalizer.cpp **** 	return m_EQParams[band].gain;
 547              		.loc 1 74 48 is_stmt 0 view .LVU133
 548 0000 01EB4103 		add	r3, r1, r1, lsl #1
 549              	.LBB31:
 550              	.LBB32:
  82:Equalizer.cpp **** 	{
 551              		.loc 1 82 2 view .LVU134
 552 0004 0329     		cmp	r1, #3
 553              	.LBE32:
 554              	.LBE31:
  71:Equalizer.cpp **** 	// TODO change code to decrement parameter for IIR filters - call updateEQParamters
 555              		.loc 1 71 1 view .LVU135
 556 0006 F0EE407A 		vmov.f32	s15, s0
  74:Equalizer.cpp **** 	return m_EQParams[band].gain;
 557              		.loc 1 74 48 view .LVU136
 558 000a 00EB8303 		add	r3, r0, r3, lsl #2
 559 000e 93ED030A 		vldr.32	s0, [r3, #12]
 560              	.LVL31:
 561              	.LBB45:
 562              	.LBI31:
  78:Equalizer.cpp **** {
 563              		.loc 1 78 6 is_stmt 1 view .LVU137
 564              	.LBB41:
  80:Equalizer.cpp **** 
 565              		.loc 1 80 5 view .LVU138
  82:Equalizer.cpp **** 	{
 566              		.loc 1 82 2 view .LVU139
 567 0012 0CDC     		bgt	.L64
 568              	.LBB33:
 569              	.LBB34:
  84:Equalizer.cpp **** 		{
 570              		.loc 1 84 3 is_stmt 0 view .LVU140
 571 0014 012A     		cmp	r2, #1
 572              	.LBE34:
 573              	.LBE33:
 574              	.LBE41:
 575              	.LBE45:
  74:Equalizer.cpp **** 	return m_EQParams[band].gain;
 576              		.loc 1 74 17 view .LVU141
 577 0016 70EE677A 		vsub.f32	s15, s0, s15
 578              	.LVL32:
  71:Equalizer.cpp **** 	// TODO change code to decrement parameter for IIR filters - call updateEQParamters
 579              		.loc 1 71 1 view .LVU142
 580 001a 70B5     		push	{r4, r5, r6, lr}
 581              		.cfi_def_cfa_offset 16
 582              		.cfi_offset 4, -16
 583              		.cfi_offset 5, -12
 584              		.cfi_offset 6, -8
 585              		.cfi_offset 14, -4
 586 001c 0E46     		mov	r6, r1
 587 001e 0546     		mov	r5, r0
ARM GAS  C:\Users\micke\AppData\Local\Temp\cc52QvG4.s 			page 15


 588              	.LVL33:
 589              	.LBB46:
 590              	.LBB42:
 591              	.LBB38:
 592              	.LBI33:
  78:Equalizer.cpp **** {
 593              		.loc 1 78 6 is_stmt 1 view .LVU143
 594              	.LBB35:
  84:Equalizer.cpp **** 		{
 595              		.loc 1 84 3 view .LVU144
 596 0020 4FEA4104 		lsl	r4, r1, #1
 597 0024 1FD0     		beq	.L60
 598 0026 022A     		cmp	r2, #2
 599 0028 13D0     		beq	.L61
 600 002a 0AB1     		cbz	r2, .L67
 601              	.L58:
 602              	.LBE35:
 603              	.LBE38:
 604              	.LBE42:
 605              	.LBE46:
  76:Equalizer.cpp **** 
 606              		.loc 1 76 1 is_stmt 0 view .LVU145
 607 002c 70BD     		pop	{r4, r5, r6, pc}
 608              	.LVL34:
 609              	.L64:
 610              		.cfi_def_cfa_offset 0
 611              		.cfi_restore 4
 612              		.cfi_restore 5
 613              		.cfi_restore 6
 614              		.cfi_restore 14
  76:Equalizer.cpp **** 
 615              		.loc 1 76 1 view .LVU146
 616 002e 7047     		bx	lr
 617              	.LVL35:
 618              	.L67:
 619              		.cfi_def_cfa_offset 16
 620              		.cfi_offset 4, -16
 621              		.cfi_offset 5, -12
 622              		.cfi_offset 6, -8
 623              		.cfi_offset 14, -4
 624              	.LBB47:
 625              	.LBB43:
 626              	.LBB39:
 627              	.LBB36:
  86:Equalizer.cpp **** 				if (m_EQParams[band].gain != value) {
 628              		.loc 1 86 4 is_stmt 1 view .LVU147
  87:Equalizer.cpp **** 					m_EQParams[band].gain = value;
 629              		.loc 1 87 5 view .LVU148
 630 0030 B4EE670A 		vcmp.f32	s0, s15
 631 0034 F1EE10FA 		vmrs	APSR_nzcv, FPSCR
 632 0038 F8D0     		beq	.L58
  88:Equalizer.cpp **** 					update = true;
 633              		.loc 1 88 6 view .LVU149
  88:Equalizer.cpp **** 					update = true;
 634              		.loc 1 88 28 is_stmt 0 view .LVU150
 635 003a C3ED037A 		vstr.32	s15, [r3, #12]
  89:Equalizer.cpp **** 				}
ARM GAS  C:\Users\micke\AppData\Local\Temp\cc52QvG4.s 			page 16


 636              		.loc 1 89 6 is_stmt 1 view .LVU151
 637              	.LVL36:
 105:Equalizer.cpp **** 	}
 638              		.loc 1 105 3 view .LVU152
 639              	.L62:
 105:Equalizer.cpp **** 	}
 640              		.loc 1 105 15 view .LVU153
 105:Equalizer.cpp **** 	}
 641              		.loc 1 105 33 is_stmt 0 view .LVU154
 642 003e 3146     		mov	r1, r6
 643              	.LVL37:
 105:Equalizer.cpp **** 	}
 644              		.loc 1 105 33 view .LVU155
 645 0040 2846     		mov	r0, r5
 646              	.LVL38:
 105:Equalizer.cpp **** 	}
 647              		.loc 1 105 33 view .LVU156
 648 0042 FFF7FEFF 		bl	_ZN9Equalizer18updateEQParametersEs
 649              	.LVL39:
 105:Equalizer.cpp **** 	}
 650              		.loc 1 105 33 view .LVU157
 651              	.LBE36:
 652              	.LBE39:
 653              	.LBE43:
 654              	.LBE47:
  75:Equalizer.cpp **** }
 655              		.loc 1 75 26 view .LVU158
 656 0046 A119     		adds	r1, r4, r6
 657 0048 05EB8100 		add	r0, r5, r1, lsl #2
 658 004c 90ED030A 		vldr.32	s0, [r0, #12]
 659              	.LVL40:
  75:Equalizer.cpp **** }
 660              		.loc 1 75 2 is_stmt 1 view .LVU159
  76:Equalizer.cpp **** 
 661              		.loc 1 76 1 is_stmt 0 view .LVU160
 662 0050 70BD     		pop	{r4, r5, r6, pc}
 663              	.LVL41:
 664              	.L61:
 665              	.LBB48:
 666              	.LBB44:
 667              	.LBB40:
 668              	.LBB37:
  98:Equalizer.cpp **** 				if (m_EQParams[band].Q != value) {
 669              		.loc 1 98 4 is_stmt 1 view .LVU161
  99:Equalizer.cpp **** 					m_EQParams[band].Q = value;
 670              		.loc 1 99 5 view .LVU162
 671 0052 93ED057A 		vldr.32	s14, [r3, #20]
 672 0056 F4EE477A 		vcmp.f32	s15, s14
 673 005a F1EE10FA 		vmrs	APSR_nzcv, FPSCR
 674 005e E5D0     		beq	.L58
 100:Equalizer.cpp **** 					update = true;
 675              		.loc 1 100 6 view .LVU163
 100:Equalizer.cpp **** 					update = true;
 676              		.loc 1 100 25 is_stmt 0 view .LVU164
 677 0060 C3ED057A 		vstr.32	s15, [r3, #20]
 101:Equalizer.cpp **** 				}
 678              		.loc 1 101 6 is_stmt 1 view .LVU165
ARM GAS  C:\Users\micke\AppData\Local\Temp\cc52QvG4.s 			page 17


 679              	.LVL42:
 105:Equalizer.cpp **** 	}
 680              		.loc 1 105 3 view .LVU166
 681 0064 EBE7     		b	.L62
 682              	.LVL43:
 683              	.L60:
  92:Equalizer.cpp **** 				if (m_EQParams[band].fc != value) {
 684              		.loc 1 92 4 view .LVU167
  93:Equalizer.cpp **** 					m_EQParams[band].fc = value;
 685              		.loc 1 93 5 view .LVU168
 686 0066 93ED047A 		vldr.32	s14, [r3, #16]
 687 006a F4EE477A 		vcmp.f32	s15, s14
 688 006e F1EE10FA 		vmrs	APSR_nzcv, FPSCR
 689 0072 DBD0     		beq	.L58
  94:Equalizer.cpp **** 					update = true;
 690              		.loc 1 94 6 view .LVU169
  94:Equalizer.cpp **** 					update = true;
 691              		.loc 1 94 26 is_stmt 0 view .LVU170
 692 0074 C3ED047A 		vstr.32	s15, [r3, #16]
  95:Equalizer.cpp **** 				}
 693              		.loc 1 95 6 is_stmt 1 view .LVU171
 694              	.LVL44:
 105:Equalizer.cpp **** 	}
 695              		.loc 1 105 3 view .LVU172
 696 0078 E1E7     		b	.L62
 697              	.LBE37:
 698              	.LBE40:
 699              	.LBE44:
 700              	.LBE48:
 701              		.cfi_endproc
 702              	.LFE556:
 704 007a 00BF     		.section	.text._ZN9Equalizer12setParameterEs9PARAMETERf,"ax",%progbits
 705              		.align	1
 706              		.p2align 2,,3
 707              		.global	_ZN9Equalizer12setParameterEs9PARAMETERf
 708              		.syntax unified
 709              		.thumb
 710              		.thumb_func
 711              		.fpu fpv5-d16
 713              	_ZN9Equalizer12setParameterEs9PARAMETERf:
 714              	.LVL45:
 715              	.LFB557:
  79:Equalizer.cpp ****     bool update = false;
 716              		.loc 1 79 1 view -0
 717              		.cfi_startproc
 718              		@ args = 0, pretend = 0, frame = 0
 719              		@ frame_needed = 0, uses_anonymous_args = 0
 720              		@ link register save eliminated.
  80:Equalizer.cpp **** 
 721              		.loc 1 80 5 view .LVU174
  82:Equalizer.cpp **** 	{
 722              		.loc 1 82 2 view .LVU175
 723 0000 0329     		cmp	r1, #3
 724 0002 04DC     		bgt	.L68
 725              	.LVL46:
 726              	.LBB51:
 727              	.LBI51:
ARM GAS  C:\Users\micke\AppData\Local\Temp\cc52QvG4.s 			page 18


  78:Equalizer.cpp **** {
 728              		.loc 1 78 6 view .LVU176
 729              	.LBB52:
  84:Equalizer.cpp **** 		{
 730              		.loc 1 84 3 view .LVU177
 731 0004 012A     		cmp	r2, #1
 732 0006 20D0     		beq	.L70
 733 0008 022A     		cmp	r2, #2
 734 000a 10D0     		beq	.L71
 735 000c 02B1     		cbz	r2, .L73
 736              	.LVL47:
 737              	.L68:
  84:Equalizer.cpp **** 		{
 738              		.loc 1 84 3 is_stmt 0 view .LVU178
 739              	.LBE52:
 740              	.LBE51:
 107:Equalizer.cpp **** 
 741              		.loc 1 107 1 view .LVU179
 742 000e 7047     		bx	lr
 743              	.LVL48:
 744              	.L73:
 745              	.LBB54:
 746              	.LBB53:
  86:Equalizer.cpp **** 				if (m_EQParams[band].gain != value) {
 747              		.loc 1 86 4 is_stmt 1 view .LVU180
  87:Equalizer.cpp **** 					m_EQParams[band].gain = value;
 748              		.loc 1 87 5 view .LVU181
  87:Equalizer.cpp **** 					m_EQParams[band].gain = value;
 749              		.loc 1 87 26 is_stmt 0 view .LVU182
 750 0010 01EB4103 		add	r3, r1, r1, lsl #1
 751 0014 00EB8303 		add	r3, r0, r3, lsl #2
  87:Equalizer.cpp **** 					m_EQParams[band].gain = value;
 752              		.loc 1 87 5 view .LVU183
 753 0018 D3ED037A 		vldr.32	s15, [r3, #12]
 754 001c B4EE670A 		vcmp.f32	s0, s15
 755 0020 F1EE10FA 		vmrs	APSR_nzcv, FPSCR
 756 0024 F3D0     		beq	.L68
  88:Equalizer.cpp **** 					update = true;
 757              		.loc 1 88 6 is_stmt 1 view .LVU184
  88:Equalizer.cpp **** 					update = true;
 758              		.loc 1 88 28 is_stmt 0 view .LVU185
 759 0026 83ED030A 		vstr.32	s0, [r3, #12]
  89:Equalizer.cpp **** 				}
 760              		.loc 1 89 6 is_stmt 1 view .LVU186
 761              	.LVL49:
 105:Equalizer.cpp **** 	}
 762              		.loc 1 105 3 view .LVU187
 763              	.L72:
 105:Equalizer.cpp **** 	}
 764              		.loc 1 105 15 view .LVU188
 105:Equalizer.cpp **** 	}
 765              		.loc 1 105 33 is_stmt 0 view .LVU189
 766 002a FFF7FEBF 		b	_ZN9Equalizer18updateEQParametersEs
 767              	.LVL50:
 768              	.L71:
  98:Equalizer.cpp **** 				if (m_EQParams[band].Q != value) {
 769              		.loc 1 98 4 is_stmt 1 view .LVU190
ARM GAS  C:\Users\micke\AppData\Local\Temp\cc52QvG4.s 			page 19


  99:Equalizer.cpp **** 					m_EQParams[band].Q = value;
 770              		.loc 1 99 5 view .LVU191
  99:Equalizer.cpp **** 					m_EQParams[band].Q = value;
 771              		.loc 1 99 26 is_stmt 0 view .LVU192
 772 002e 01EB4103 		add	r3, r1, r1, lsl #1
 773 0032 00EB8303 		add	r3, r0, r3, lsl #2
  99:Equalizer.cpp **** 					m_EQParams[band].Q = value;
 774              		.loc 1 99 5 view .LVU193
 775 0036 D3ED057A 		vldr.32	s15, [r3, #20]
 776 003a B4EE670A 		vcmp.f32	s0, s15
 777 003e F1EE10FA 		vmrs	APSR_nzcv, FPSCR
 778 0042 E4D0     		beq	.L68
 100:Equalizer.cpp **** 					update = true;
 779              		.loc 1 100 6 is_stmt 1 view .LVU194
 100:Equalizer.cpp **** 					update = true;
 780              		.loc 1 100 25 is_stmt 0 view .LVU195
 781 0044 83ED050A 		vstr.32	s0, [r3, #20]
 101:Equalizer.cpp **** 				}
 782              		.loc 1 101 6 is_stmt 1 view .LVU196
 783              	.LVL51:
 105:Equalizer.cpp **** 	}
 784              		.loc 1 105 3 view .LVU197
 785 0048 EFE7     		b	.L72
 786              	.LVL52:
 787              	.L70:
  92:Equalizer.cpp **** 				if (m_EQParams[band].fc != value) {
 788              		.loc 1 92 4 view .LVU198
  93:Equalizer.cpp **** 					m_EQParams[band].fc = value;
 789              		.loc 1 93 5 view .LVU199
  93:Equalizer.cpp **** 					m_EQParams[band].fc = value;
 790              		.loc 1 93 26 is_stmt 0 view .LVU200
 791 004a 01EB4103 		add	r3, r1, r1, lsl #1
 792 004e 00EB8303 		add	r3, r0, r3, lsl #2
  93:Equalizer.cpp **** 					m_EQParams[band].fc = value;
 793              		.loc 1 93 5 view .LVU201
 794 0052 D3ED047A 		vldr.32	s15, [r3, #16]
 795 0056 B4EE670A 		vcmp.f32	s0, s15
 796 005a F1EE10FA 		vmrs	APSR_nzcv, FPSCR
 797 005e D6D0     		beq	.L68
  94:Equalizer.cpp **** 					update = true;
 798              		.loc 1 94 6 is_stmt 1 view .LVU202
  94:Equalizer.cpp **** 					update = true;
 799              		.loc 1 94 26 is_stmt 0 view .LVU203
 800 0060 83ED040A 		vstr.32	s0, [r3, #16]
  95:Equalizer.cpp **** 				}
 801              		.loc 1 95 6 is_stmt 1 view .LVU204
 802              	.LVL53:
 105:Equalizer.cpp **** 	}
 803              		.loc 1 105 3 view .LVU205
 804 0064 E1E7     		b	.L72
 805              	.LBE53:
 806              	.LBE54:
 807              		.cfi_endproc
 808              	.LFE557:
 810              		.section	.text._ZN9Equalizer12incParameterEs9PARAMETERf,"ax",%progbits
 811              		.align	1
 812              		.p2align 2,,3
ARM GAS  C:\Users\micke\AppData\Local\Temp\cc52QvG4.s 			page 20


 813              		.global	_ZN9Equalizer12incParameterEs9PARAMETERf
 814              		.syntax unified
 815              		.thumb
 816              		.thumb_func
 817              		.fpu fpv5-d16
 819              	_ZN9Equalizer12incParameterEs9PARAMETERf:
 820              	.LVL54:
 821              	.LFB555:
  63:Equalizer.cpp **** 	// TODO change code to increment parameter for IIR filters (See slides) - call updateEQParamters
 822              		.loc 1 63 1 view -0
 823              		.cfi_startproc
 824              		@ args = 0, pretend = 0, frame = 0
 825              		@ frame_needed = 0, uses_anonymous_args = 0
  66:Equalizer.cpp **** 	return m_EQParams[band].gain;
 826              		.loc 1 66 5 view .LVU207
  66:Equalizer.cpp **** 	return m_EQParams[band].gain;
 827              		.loc 1 66 48 is_stmt 0 view .LVU208
 828 0000 01EB4103 		add	r3, r1, r1, lsl #1
 829              	.LBB59:
 830              	.LBB60:
  82:Equalizer.cpp **** 	{
 831              		.loc 1 82 2 view .LVU209
 832 0004 0329     		cmp	r1, #3
 833              	.LBE60:
 834              	.LBE59:
  63:Equalizer.cpp **** 	// TODO change code to increment parameter for IIR filters (See slides) - call updateEQParamters
 835              		.loc 1 63 1 view .LVU210
 836 0006 F0EE407A 		vmov.f32	s15, s0
  66:Equalizer.cpp **** 	return m_EQParams[band].gain;
 837              		.loc 1 66 48 view .LVU211
 838 000a 00EB8303 		add	r3, r0, r3, lsl #2
 839 000e 93ED030A 		vldr.32	s0, [r3, #12]
 840              	.LVL55:
 841              	.LBB73:
 842              	.LBI59:
  78:Equalizer.cpp **** {
 843              		.loc 1 78 6 is_stmt 1 view .LVU212
 844              	.LBB69:
  80:Equalizer.cpp **** 
 845              		.loc 1 80 5 view .LVU213
  82:Equalizer.cpp **** 	{
 846              		.loc 1 82 2 view .LVU214
 847 0012 0CDC     		bgt	.L80
 848              	.LBB61:
 849              	.LBB62:
  84:Equalizer.cpp **** 		{
 850              		.loc 1 84 3 is_stmt 0 view .LVU215
 851 0014 012A     		cmp	r2, #1
 852              	.LBE62:
 853              	.LBE61:
 854              	.LBE69:
 855              	.LBE73:
  66:Equalizer.cpp **** 	return m_EQParams[band].gain;
 856              		.loc 1 66 17 view .LVU216
 857 0016 70EE277A 		vadd.f32	s15, s0, s15
 858              	.LVL56:
  63:Equalizer.cpp **** 	// TODO change code to increment parameter for IIR filters (See slides) - call updateEQParamters
ARM GAS  C:\Users\micke\AppData\Local\Temp\cc52QvG4.s 			page 21


 859              		.loc 1 63 1 view .LVU217
 860 001a 70B5     		push	{r4, r5, r6, lr}
 861              		.cfi_def_cfa_offset 16
 862              		.cfi_offset 4, -16
 863              		.cfi_offset 5, -12
 864              		.cfi_offset 6, -8
 865              		.cfi_offset 14, -4
 866 001c 0E46     		mov	r6, r1
 867 001e 0546     		mov	r5, r0
 868              	.LVL57:
 869              	.LBB74:
 870              	.LBB70:
 871              	.LBB66:
 872              	.LBI61:
  78:Equalizer.cpp **** {
 873              		.loc 1 78 6 is_stmt 1 view .LVU218
 874              	.LBB63:
  84:Equalizer.cpp **** 		{
 875              		.loc 1 84 3 view .LVU219
 876 0020 4FEA4104 		lsl	r4, r1, #1
 877 0024 1FD0     		beq	.L76
 878 0026 022A     		cmp	r2, #2
 879 0028 13D0     		beq	.L77
 880 002a 0AB1     		cbz	r2, .L83
 881              	.L74:
 882              	.LBE63:
 883              	.LBE66:
 884              	.LBE70:
 885              	.LBE74:
  68:Equalizer.cpp **** 
 886              		.loc 1 68 1 is_stmt 0 view .LVU220
 887 002c 70BD     		pop	{r4, r5, r6, pc}
 888              	.LVL58:
 889              	.L80:
 890              		.cfi_def_cfa_offset 0
 891              		.cfi_restore 4
 892              		.cfi_restore 5
 893              		.cfi_restore 6
 894              		.cfi_restore 14
  68:Equalizer.cpp **** 
 895              		.loc 1 68 1 view .LVU221
 896 002e 7047     		bx	lr
 897              	.LVL59:
 898              	.L83:
 899              		.cfi_def_cfa_offset 16
 900              		.cfi_offset 4, -16
 901              		.cfi_offset 5, -12
 902              		.cfi_offset 6, -8
 903              		.cfi_offset 14, -4
 904              	.LBB75:
 905              	.LBB71:
 906              	.LBB67:
 907              	.LBB64:
  86:Equalizer.cpp **** 				if (m_EQParams[band].gain != value) {
 908              		.loc 1 86 4 is_stmt 1 view .LVU222
  87:Equalizer.cpp **** 					m_EQParams[band].gain = value;
 909              		.loc 1 87 5 view .LVU223
ARM GAS  C:\Users\micke\AppData\Local\Temp\cc52QvG4.s 			page 22


 910 0030 B4EE670A 		vcmp.f32	s0, s15
 911 0034 F1EE10FA 		vmrs	APSR_nzcv, FPSCR
 912 0038 F8D0     		beq	.L74
  88:Equalizer.cpp **** 					update = true;
 913              		.loc 1 88 6 view .LVU224
  88:Equalizer.cpp **** 					update = true;
 914              		.loc 1 88 28 is_stmt 0 view .LVU225
 915 003a C3ED037A 		vstr.32	s15, [r3, #12]
  89:Equalizer.cpp **** 				}
 916              		.loc 1 89 6 is_stmt 1 view .LVU226
 917              	.LVL60:
 105:Equalizer.cpp **** 	}
 918              		.loc 1 105 3 view .LVU227
 919              	.L78:
 105:Equalizer.cpp **** 	}
 920              		.loc 1 105 15 view .LVU228
 105:Equalizer.cpp **** 	}
 921              		.loc 1 105 33 is_stmt 0 view .LVU229
 922 003e 3146     		mov	r1, r6
 923              	.LVL61:
 105:Equalizer.cpp **** 	}
 924              		.loc 1 105 33 view .LVU230
 925 0040 2846     		mov	r0, r5
 926              	.LVL62:
 105:Equalizer.cpp **** 	}
 927              		.loc 1 105 33 view .LVU231
 928 0042 FFF7FEFF 		bl	_ZN9Equalizer18updateEQParametersEs
 929              	.LVL63:
 105:Equalizer.cpp **** 	}
 930              		.loc 1 105 33 view .LVU232
 931              	.LBE64:
 932              	.LBE67:
 933              	.LBE71:
 934              	.LBE75:
  67:Equalizer.cpp **** }
 935              		.loc 1 67 26 view .LVU233
 936 0046 A119     		adds	r1, r4, r6
 937 0048 05EB8100 		add	r0, r5, r1, lsl #2
 938 004c 90ED030A 		vldr.32	s0, [r0, #12]
 939              	.LVL64:
  67:Equalizer.cpp **** }
 940              		.loc 1 67 2 is_stmt 1 view .LVU234
  68:Equalizer.cpp **** 
 941              		.loc 1 68 1 is_stmt 0 view .LVU235
 942 0050 70BD     		pop	{r4, r5, r6, pc}
 943              	.LVL65:
 944              	.L77:
 945              	.LBB76:
 946              	.LBB72:
 947              	.LBB68:
 948              	.LBB65:
  98:Equalizer.cpp **** 				if (m_EQParams[band].Q != value) {
 949              		.loc 1 98 4 is_stmt 1 view .LVU236
  99:Equalizer.cpp **** 					m_EQParams[band].Q = value;
 950              		.loc 1 99 5 view .LVU237
 951 0052 93ED057A 		vldr.32	s14, [r3, #20]
 952 0056 F4EE477A 		vcmp.f32	s15, s14
ARM GAS  C:\Users\micke\AppData\Local\Temp\cc52QvG4.s 			page 23


 953 005a F1EE10FA 		vmrs	APSR_nzcv, FPSCR
 954 005e E5D0     		beq	.L74
 100:Equalizer.cpp **** 					update = true;
 955              		.loc 1 100 6 view .LVU238
 100:Equalizer.cpp **** 					update = true;
 956              		.loc 1 100 25 is_stmt 0 view .LVU239
 957 0060 C3ED057A 		vstr.32	s15, [r3, #20]
 101:Equalizer.cpp **** 				}
 958              		.loc 1 101 6 is_stmt 1 view .LVU240
 959              	.LVL66:
 105:Equalizer.cpp **** 	}
 960              		.loc 1 105 3 view .LVU241
 961 0064 EBE7     		b	.L78
 962              	.LVL67:
 963              	.L76:
  92:Equalizer.cpp **** 				if (m_EQParams[band].fc != value) {
 964              		.loc 1 92 4 view .LVU242
  93:Equalizer.cpp **** 					m_EQParams[band].fc = value;
 965              		.loc 1 93 5 view .LVU243
 966 0066 93ED047A 		vldr.32	s14, [r3, #16]
 967 006a F4EE477A 		vcmp.f32	s15, s14
 968 006e F1EE10FA 		vmrs	APSR_nzcv, FPSCR
 969 0072 DBD0     		beq	.L74
  94:Equalizer.cpp **** 					update = true;
 970              		.loc 1 94 6 view .LVU244
  94:Equalizer.cpp **** 					update = true;
 971              		.loc 1 94 26 is_stmt 0 view .LVU245
 972 0074 C3ED047A 		vstr.32	s15, [r3, #16]
  95:Equalizer.cpp **** 				}
 973              		.loc 1 95 6 is_stmt 1 view .LVU246
 974              	.LVL68:
 105:Equalizer.cpp **** 	}
 975              		.loc 1 105 3 view .LVU247
 976 0078 E1E7     		b	.L78
 977              	.LBE65:
 978              	.LBE68:
 979              	.LBE72:
 980              	.LBE76:
 981              		.cfi_endproc
 982              	.LFE555:
 984 007a 00BF     		.section	.text._ZN9Equalizer12getParameterEs9PARAMETER,"ax",%progbits
 985              		.align	1
 986              		.p2align 2,,3
 987              		.global	_ZN9Equalizer12getParameterEs9PARAMETER
 988              		.syntax unified
 989              		.thumb
 990              		.thumb_func
 991              		.fpu fpv5-d16
 993              	_ZN9Equalizer12getParameterEs9PARAMETER:
 994              	.LVL69:
 995              	.LFB559:
 127:Equalizer.cpp **** 							      m_EQParams[band].fc,
 128:Equalizer.cpp **** 								  m_EQParams[band].Q,
 129:Equalizer.cpp **** 								  m_EQParams[band].gain);
 130:Equalizer.cpp **** 
 131:Equalizer.cpp **** }
 132:Equalizer.cpp **** 
ARM GAS  C:\Users\micke\AppData\Local\Temp\cc52QvG4.s 			page 24


 133:Equalizer.cpp **** float Equalizer::getParameter(short band, PARAMETER param) 
 134:Equalizer.cpp **** {
 996              		.loc 1 134 1 view -0
 997              		.cfi_startproc
 998              		@ args = 0, pretend = 0, frame = 0
 999              		@ frame_needed = 0, uses_anonymous_args = 0
 1000              		@ link register save eliminated.
 135:Equalizer.cpp **** 		switch (param) 
 1001              		.loc 1 135 3 view .LVU249
 1002 0000 012A     		cmp	r2, #1
 1003 0002 05D0     		beq	.L85
 1004 0004 022A     		cmp	r2, #2
 1005 0006 11D0     		beq	.L86
 1006 0008 4AB1     		cbz	r2, .L89
 1007 000a 9FED0C0A 		vldr.32	s0, .L90
 136:Equalizer.cpp **** 		{
 137:Equalizer.cpp **** 			case PM_GAIN:
 138:Equalizer.cpp **** 				return m_EQParams[band].gain;
 139:Equalizer.cpp **** 			case PM_FREQ:
 140:Equalizer.cpp **** 				return m_EQParams[band].fc;
 141:Equalizer.cpp **** 			case PM_Q:
 142:Equalizer.cpp **** 				return m_EQParams[band].Q;
 143:Equalizer.cpp **** 			default:
 144:Equalizer.cpp **** 				return 0.0;
 145:Equalizer.cpp **** 		}
 146:Equalizer.cpp **** 	}...
 1008              		.loc 1 146 2 is_stmt 0 view .LVU250
 1009 000e 7047     		bx	lr
 1010              	.L85:
 139:Equalizer.cpp **** 			case PM_FREQ:
 1011              		.loc 1 139 4 is_stmt 1 view .LVU251
 140:Equalizer.cpp **** 				return m_EQParams[band].fc;
 1012              		.loc 1 140 5 view .LVU252
 140:Equalizer.cpp **** 				return m_EQParams[band].fc;
 1013              		.loc 1 140 29 is_stmt 0 view .LVU253
 1014 0010 01EB4101 		add	r1, r1, r1, lsl #1
 1015              	.LVL70:
 140:Equalizer.cpp **** 				return m_EQParams[band].fc;
 1016              		.loc 1 140 29 view .LVU254
 1017 0014 00EB8100 		add	r0, r0, r1, lsl #2
 1018              	.LVL71:
 140:Equalizer.cpp **** 				return m_EQParams[band].fc;
 1019              		.loc 1 140 29 view .LVU255
 1020 0018 90ED040A 		vldr.32	s0, [r0, #16]
 1021 001c 7047     		bx	lr
 1022              	.LVL72:
 1023              	.L89:
 137:Equalizer.cpp **** 			case PM_GAIN:
 1024              		.loc 1 137 4 is_stmt 1 view .LVU256
 138:Equalizer.cpp **** 				return m_EQParams[band].gain;
 1025              		.loc 1 138 5 view .LVU257
 138:Equalizer.cpp **** 				return m_EQParams[band].gain;
 1026              		.loc 1 138 29 is_stmt 0 view .LVU258
 1027 001e 01EB4101 		add	r1, r1, r1, lsl #1
 1028              	.LVL73:
 138:Equalizer.cpp **** 				return m_EQParams[band].gain;
 1029              		.loc 1 138 29 view .LVU259
ARM GAS  C:\Users\micke\AppData\Local\Temp\cc52QvG4.s 			page 25


 1030 0022 00EB8100 		add	r0, r0, r1, lsl #2
 1031              	.LVL74:
 138:Equalizer.cpp **** 				return m_EQParams[band].gain;
 1032              		.loc 1 138 29 view .LVU260
 1033 0026 90ED030A 		vldr.32	s0, [r0, #12]
 1034 002a 7047     		bx	lr
 1035              	.LVL75:
 1036              	.L86:
 141:Equalizer.cpp **** 			case PM_Q:
 1037              		.loc 1 141 4 is_stmt 1 view .LVU261
 142:Equalizer.cpp **** 				return m_EQParams[band].Q;
 1038              		.loc 1 142 5 view .LVU262
 142:Equalizer.cpp **** 				return m_EQParams[band].Q;
 1039              		.loc 1 142 29 is_stmt 0 view .LVU263
 1040 002c 01EB4101 		add	r1, r1, r1, lsl #1
 1041              	.LVL76:
 142:Equalizer.cpp **** 				return m_EQParams[band].Q;
 1042              		.loc 1 142 29 view .LVU264
 1043 0030 00EB8100 		add	r0, r0, r1, lsl #2
 1044              	.LVL77:
 142:Equalizer.cpp **** 				return m_EQParams[band].Q;
 1045              		.loc 1 142 29 view .LVU265
 1046 0034 90ED050A 		vldr.32	s0, [r0, #20]
 1047 0038 7047     		bx	lr
 1048              	.L91:
 1049 003a 00BF     		.align	2
 1050              	.L90:
 1051 003c 00000000 		.word	0
 1052              		.cfi_endproc
 1053              	.LFE559:
 1055              		.global	_ZTV9Equalizer
 1056              		.section	.rodata._ZTV9Equalizer,"a"
 1057              		.align	2
 1058              		.set	.LANCHOR0,. + 0
 1061              	_ZTV9Equalizer:
 1062 0000 00000000 		.word	0
 1063 0004 00000000 		.word	0
 1064 0008 00000000 		.word	_ZN9EqualizerD1Ev
 1065 000c 00000000 		.word	_ZN9EqualizerD0Ev
 1066 0010 00000000 		.word	_ZN9Equalizer7ProcessEf
 1067 0014 00000000 		.word	_ZN9Equalizer4InitEv
 1068              		.text
 1069              	.Letext0:
 1070              		.file 2 "c:\\program files\\daisytoolchain\\arm-none-eabi\\include\\c++\\10.2.1\\cmath"
 1071              		.file 3 "c:\\program files\\daisytoolchain\\arm-none-eabi\\include\\c++\\10.2.1\\bits\\std_abs.h"
 1072              		.file 4 "c:\\program files\\daisytoolchain\\arm-none-eabi\\include\\c++\\10.2.1\\arm-none-eabi\\th
 1073              		.file 5 "c:\\program files\\daisytoolchain\\arm-none-eabi\\include\\math.h"
 1074              		.file 6 "c:\\program files\\daisytoolchain\\arm-none-eabi\\include\\c++\\10.2.1\\math.h"
 1075              		.file 7 "Equalizer.h"
 1076              		.file 8 "<built-in>"
 1077              		.file 9 "IIRFilter.h"
ARM GAS  C:\Users\micke\AppData\Local\Temp\cc52QvG4.s 			page 26

