ARM GAS  C:\Users\micke\AppData\Local\Temp\ccVFxgtH.s 			page 1


   1              		.cpu cortex-m7
   2              		.eabi_attribute 28, 1
   3              		.eabi_attribute 20, 1
   4              		.eabi_attribute 21, 1
   5              		.eabi_attribute 23, 3
   6              		.eabi_attribute 24, 1
   7              		.eabi_attribute 25, 1
   8              		.eabi_attribute 26, 1
   9              		.eabi_attribute 30, 2
  10              		.eabi_attribute 34, 1
  11              		.eabi_attribute 18, 4
  12              		.file	"Controller.cpp"
  13              		.text
  14              	.Ltext0:
  15              		.cfi_sections	.debug_frame
  16              		.section	.text._ZN10ControllerC2EP13PitchDetectorS1_PN5daisy8DaisyPodE,"ax",%progbits
  17              		.align	1
  18              		.p2align 2,,3
  19              		.global	_ZN10ControllerC2EP13PitchDetectorS1_PN5daisy8DaisyPodE
  20              		.arch armv7e-m
  21              		.syntax unified
  22              		.thumb
  23              		.thumb_func
  24              		.fpu fpv5-d16
  26              	_ZN10ControllerC2EP13PitchDetectorS1_PN5daisy8DaisyPodE:
  27              	.LVL0:
  28              	.LFB2568:
  29              		.file 1 "Controller.cpp"
   1:Controller.cpp **** #include "Controller.h"
   2:Controller.cpp **** 
   3:Controller.cpp **** Controller::Controller(PitchDetector *pitchDetectorLeft,
  30              		.loc 1 3 1 view -0
  31              		.cfi_startproc
  32              		@ args = 0, pretend = 0, frame = 0
  33              		@ frame_needed = 0, uses_anonymous_args = 0
  34              		@ link register save eliminated.
  35              	.LBB42:
   4:Controller.cpp ****                        PitchDetector *pitchDetectorRight,
   5:Controller.cpp ****                        DaisyPod      *daisyPod) : m_pitchDetectorLeft(pitchDetectorLeft),
   6:Controller.cpp **** 												 m_pitchDetectorRight(pitchDetectorRight),
   7:Controller.cpp **** 												 m_daisyPod(daisyPod),
   8:Controller.cpp **** 												 bypass_(true),
   9:Controller.cpp **** 												 currentAlgorithm_(ALG_YIN)
  36              		.loc 1 9 39 is_stmt 0 view .LVU1
  37 0000 0160     		str	r1, [r0]
  38 0002 0121     		movs	r1, #1
  39              	.LVL1:
  40              		.loc 1 9 39 view .LVU2
  41 0004 C0E90123 		strd	r2, r3, [r0, #4]
  42 0008 8181     		strh	r1, [r0, #12]	@ movhi
  43              	.LVL2:
  44              	.LBB43:
  45              	.LBI43:
  46              		.file 2 "../../libDaisy//src/util/color.h"
   1:../../libDaisy//src/util/color.h **** /* 
   2:../../libDaisy//src/util/color.h **** TODO:
   3:../../libDaisy//src/util/color.h **** - Add Blend(), Scale(), etc.
ARM GAS  C:\Users\micke\AppData\Local\Temp\ccVFxgtH.s 			page 2


   4:../../libDaisy//src/util/color.h **** - I'd also like to change the way the Color names are accessed.
   5:../../libDaisy//src/util/color.h **** */
   6:../../libDaisy//src/util/color.h **** /**        I'd like for it to be easy and not `Color::PresetColor::Foo`
   7:../../libDaisy//src/util/color.h **** */
   8:../../libDaisy//src/util/color.h **** /** - There's no way to change a color once its been created (without unintuitively reiniting it).
   9:../../libDaisy//src/util/color.h **** */
  10:../../libDaisy//src/util/color.h **** #pragma once
  11:../../libDaisy//src/util/color.h **** #ifndef DSY_COLOR_H
  12:../../libDaisy//src/util/color.h **** #define DSY_COLOR_H
  13:../../libDaisy//src/util/color.h **** #include <stdint.h>
  14:../../libDaisy//src/util/color.h **** 
  15:../../libDaisy//src/util/color.h **** 
  16:../../libDaisy//src/util/color.h **** namespace daisy
  17:../../libDaisy//src/util/color.h **** {
  18:../../libDaisy//src/util/color.h **** /** @addtogroup utility
  19:../../libDaisy//src/util/color.h ****     @{
  20:../../libDaisy//src/util/color.h **** */
  21:../../libDaisy//src/util/color.h **** 
  22:../../libDaisy//src/util/color.h **** /** Class for handling simple colors */
  23:../../libDaisy//src/util/color.h **** class Color
  24:../../libDaisy//src/util/color.h **** {
  25:../../libDaisy//src/util/color.h ****   public:
  26:../../libDaisy//src/util/color.h ****     Color() {}
  47              		.loc 2 26 5 is_stmt 1 view .LVU3
  48              		.loc 2 26 5 is_stmt 0 view .LVU4
  49              	.LBE43:
  50              	.LBB44:
  51              	.LBI44:
  52              		.loc 2 26 5 is_stmt 1 view .LVU5
  53              		.loc 2 26 5 is_stmt 0 view .LVU6
  54              	.LBE44:
  55              	.LBB45:
  56              	.LBI45:
  57              		.loc 2 26 5 is_stmt 1 view .LVU7
  58              		.loc 2 26 5 is_stmt 0 view .LVU8
  59              	.LBE45:
  60              	.LBB46:
  61              	.LBI46:
  62              		.loc 2 26 5 is_stmt 1 view .LVU9
  63              		.loc 2 26 5 is_stmt 0 view .LVU10
  64              	.LBE46:
  65              	.LBE42:
  10:Controller.cpp **** {
  11:Controller.cpp **** }
  66              		.loc 1 11 1 view .LVU11
  67 000a 7047     		bx	lr
  68              		.cfi_endproc
  69              	.LFE2568:
  71              		.global	_ZN10ControllerC1EP13PitchDetectorS1_PN5daisy8DaisyPodE
  72              		.thumb_set _ZN10ControllerC1EP13PitchDetectorS1_PN5daisy8DaisyPodE,_ZN10ControllerC2EP13PitchDetec
  73              		.section	.text._ZN10ControllerD2Ev,"ax",%progbits
  74              		.align	1
  75              		.p2align 2,,3
  76              		.global	_ZN10ControllerD2Ev
  77              		.syntax unified
  78              		.thumb
  79              		.thumb_func
ARM GAS  C:\Users\micke\AppData\Local\Temp\ccVFxgtH.s 			page 3


  80              		.fpu fpv5-d16
  82              	_ZN10ControllerD2Ev:
  83              	.LVL3:
  84              	.LFB2571:
  12:Controller.cpp **** 
  13:Controller.cpp **** Controller::~Controller() {}
  85              		.loc 1 13 1 is_stmt 1 view -0
  86              		.cfi_startproc
  87              		@ args = 0, pretend = 0, frame = 0
  88              		@ frame_needed = 0, uses_anonymous_args = 0
  89              		@ link register save eliminated.
  90              	.LBB47:
  91              	.LBI47:
  27:../../libDaisy//src/util/color.h ****     ~Color() {}
  92              		.loc 2 27 5 view .LVU13
  93              		.loc 2 27 5 is_stmt 0 view .LVU14
  94              	.LBE47:
  95              	.LBB48:
  96              	.LBI48:
  97              		.loc 2 27 5 is_stmt 1 view .LVU15
  98              		.loc 2 27 5 is_stmt 0 view .LVU16
  99              	.LBE48:
 100              	.LBB49:
 101              	.LBI49:
 102              		.loc 2 27 5 is_stmt 1 view .LVU17
 103              		.loc 2 27 5 is_stmt 0 view .LVU18
 104              	.LBE49:
 105              	.LBB50:
 106              	.LBI50:
 107              		.loc 2 27 5 is_stmt 1 view .LVU19
 108              		.loc 2 27 5 is_stmt 0 view .LVU20
 109              	.LBE50:
 110              		.loc 1 13 28 view .LVU21
 111 0000 7047     		bx	lr
 112              		.cfi_endproc
 113              	.LFE2571:
 115              		.global	_ZN10ControllerD1Ev
 116              		.thumb_set _ZN10ControllerD1Ev,_ZN10ControllerD2Ev
 117 0002 00BF     		.section	.text._ZN10Controller4InitEv,"ax",%progbits
 118              		.align	1
 119              		.p2align 2,,3
 120              		.global	_ZN10Controller4InitEv
 121              		.syntax unified
 122              		.thumb
 123              		.thumb_func
 124              		.fpu fpv5-d16
 126              	_ZN10Controller4InitEv:
 127              	.LVL4:
 128              	.LFB2573:
  14:Controller.cpp **** 
  15:Controller.cpp **** void Controller::Init() 
  16:Controller.cpp **** {
 129              		.loc 1 16 1 is_stmt 1 view -0
 130              		.cfi_startproc
 131              		@ args = 0, pretend = 0, frame = 0
 132              		@ frame_needed = 0, uses_anonymous_args = 0
  17:Controller.cpp **** 	colorYIN_.Init(Color::PresetColor::GREEN);
ARM GAS  C:\Users\micke\AppData\Local\Temp\ccVFxgtH.s 			page 4


 133              		.loc 1 17 2 view .LVU23
  16:Controller.cpp **** 	colorYIN_.Init(Color::PresetColor::GREEN);
 134              		.loc 1 16 1 is_stmt 0 view .LVU24
 135 0000 10B5     		push	{r4, lr}
 136              		.cfi_def_cfa_offset 8
 137              		.cfi_offset 4, -8
 138              		.cfi_offset 14, -4
  16:Controller.cpp **** 	colorYIN_.Init(Color::PresetColor::GREEN);
 139              		.loc 1 16 1 view .LVU25
 140 0002 0446     		mov	r4, r0
 141              		.loc 1 17 16 view .LVU26
 142 0004 0121     		movs	r1, #1
 143 0006 1030     		adds	r0, r0, #16
 144              	.LVL5:
 145              		.loc 1 17 16 view .LVU27
 146 0008 FFF7FEFF 		bl	_ZN5daisy5Color4InitENS0_11PresetColorE
 147              	.LVL6:
  18:Controller.cpp **** 	colorACF_.Init(Color::PresetColor::BLUE);
 148              		.loc 1 18 2 is_stmt 1 view .LVU28
 149              		.loc 1 18 16 is_stmt 0 view .LVU29
 150 000c 04F11C00 		add	r0, r4, #28
 151 0010 0221     		movs	r1, #2
 152 0012 FFF7FEFF 		bl	_ZN5daisy5Color4InitENS0_11PresetColorE
 153              	.LVL7:
  19:Controller.cpp **** 	colorActive_.Init(Color::PresetColor::WHITE);
 154              		.loc 1 19 2 is_stmt 1 view .LVU30
 155              		.loc 1 19 19 is_stmt 0 view .LVU31
 156 0016 04F12800 		add	r0, r4, #40
 157 001a 0321     		movs	r1, #3
 158 001c FFF7FEFF 		bl	_ZN5daisy5Color4InitENS0_11PresetColorE
 159              	.LVL8:
  20:Controller.cpp **** 	colorOff_.Init(Color::PresetColor::OFF);
 160              		.loc 1 20 2 is_stmt 1 view .LVU32
 161              		.loc 1 20 16 is_stmt 0 view .LVU33
 162 0020 04F13400 		add	r0, r4, #52
 163 0024 0721     		movs	r1, #7
  21:Controller.cpp **** 
  22:Controller.cpp **** }
 164              		.loc 1 22 1 view .LVU34
 165 0026 BDE81040 		pop	{r4, lr}
 166              		.cfi_restore 14
 167              		.cfi_restore 4
 168              		.cfi_def_cfa_offset 0
 169              	.LVL9:
  20:Controller.cpp **** 	colorOff_.Init(Color::PresetColor::OFF);
 170              		.loc 1 20 16 view .LVU35
 171 002a FFF7FEBF 		b	_ZN5daisy5Color4InitENS0_11PresetColorE
 172              	.LVL10:
  20:Controller.cpp **** 	colorOff_.Init(Color::PresetColor::OFF);
 173              		.loc 1 20 16 view .LVU36
 174              		.cfi_endproc
 175              	.LFE2573:
 177 002e 00BF     		.section	.rodata._ZN10Controller10printStateEmf.str1.4,"aMS",%progbits,1
 178              		.align	2
 179              	.LC0:
 180 0000 59494E00 		.ascii	"YIN\000"
 181              		.align	2
ARM GAS  C:\Users\micke\AppData\Local\Temp\ccVFxgtH.s 			page 5


 182              	.LC1:
 183 0004 41434600 		.ascii	"ACF\000"
 184              		.align	2
 185              	.LC2:
 186 0008 42797061 		.ascii	"Bypass enabled. No pitch detection.\000"
 186      73732065 
 186      6E61626C 
 186      65642E20 
 186      4E6F2070 
 187              		.align	2
 188              	.LC3:
 189 002c 5B25735D 		.ascii	"[%s] Pitch: %.2f Hz | Confidence: %.2f\000"
 189      20506974 
 189      63683A20 
 189      252E3266 
 189      20487A20 
 190 0053 00       		.align	2
 191              	.LC4:
 192 0054 5B25735D 		.ascii	"[%s] No pitch detected.\000"
 192      204E6F20 
 192      70697463 
 192      68206465 
 192      74656374 
 193              		.section	.text._ZN10Controller10printStateEmf,"ax",%progbits
 194              		.align	1
 195              		.p2align 2,,3
 196              		.global	_ZN10Controller10printStateEmf
 197              		.syntax unified
 198              		.thumb
 199              		.thumb_func
 200              		.fpu fpv5-d16
 202              	_ZN10Controller10printStateEmf:
 203              	.LVL11:
 204              	.LFB2574:
  23:Controller.cpp **** 
  24:Controller.cpp **** void Controller::printState(uint32_t dur, float sampleTimeNs) 
  25:Controller.cpp **** {
 205              		.loc 1 25 1 is_stmt 1 view -0
 206              		.cfi_startproc
 207              		@ args = 0, pretend = 0, frame = 24
 208              		@ frame_needed = 0, uses_anonymous_args = 0
  26:Controller.cpp **** 	PitchResult result = m_pitchDetectorLeft->getLastResult();
 209              		.loc 1 26 2 view .LVU38
  25:Controller.cpp **** 	PitchResult result = m_pitchDetectorLeft->getLastResult();
 210              		.loc 1 25 1 is_stmt 0 view .LVU39
 211 0000 10B5     		push	{r4, lr}
 212              		.cfi_def_cfa_offset 8
 213              		.cfi_offset 4, -8
 214              		.cfi_offset 14, -4
 215 0002 0446     		mov	r4, r0
 216 0004 88B0     		sub	sp, sp, #32
 217              		.cfi_def_cfa_offset 40
 218              		.loc 1 26 58 view .LVU40
 219 0006 0068     		ldr	r0, [r0]
 220              	.LVL12:
 221              		.loc 1 26 58 view .LVU41
 222 0008 FFF7FEFF 		bl	_ZN13PitchDetector13getLastResultEv
ARM GAS  C:\Users\micke\AppData\Local\Temp\ccVFxgtH.s 			page 6


 223              	.LVL13:
  27:Controller.cpp **** 
  28:Controller.cpp **** 	const char* algName = (currentAlgorithm_ == ALG_YIN) ? "YIN" : "ACF";
 224              		.loc 1 28 14 view .LVU42
 225 000c 607B     		ldrb	r0, [r4, #13]	@ zero_extendqisi2
 226 000e 1849     		ldr	r1, .L18
 227 0010 184A     		ldr	r2, .L18+4
  29:Controller.cpp **** 
  30:Controller.cpp **** 	if (bypass_) {
 228              		.loc 1 30 2 view .LVU43
 229 0012 237B     		ldrb	r3, [r4, #12]	@ zero_extendqisi2
  28:Controller.cpp **** 
 230              		.loc 1 28 14 view .LVU44
 231 0014 0028     		cmp	r0, #0
 232 0016 18BF     		it	ne
 233 0018 1146     		movne	r1, r2
  26:Controller.cpp **** 
 234              		.loc 1 26 58 view .LVU45
 235 001a 8DED050A 		vstr.32	s0, [sp, #20]
 236 001e CDED060A 		vstr.32	s1, [sp, #24]
 237 0022 8DED071A 		vstr.32	s2, [sp, #28]
  28:Controller.cpp **** 
 238              		.loc 1 28 2 is_stmt 1 view .LVU46
 239              	.LVL14:
 240              		.loc 1 30 2 view .LVU47
 241 0026 EBB9     		cbnz	r3, .L17
 242              	.LVL15:
 243              	.L8:
  31:Controller.cpp **** 		m_daisyPod->seed.PrintLine("Bypass enabled. No pitch detection.");
  32:Controller.cpp **** 	}
  33:Controller.cpp **** 
  34:Controller.cpp **** 	if (result.valid){
 244              		.loc 1 34 2 view .LVU48
 245 0028 DDED077A 		vldr.32	s15, [sp, #28]
 246 002c F5EE407A 		vcmp.f32	s15, #0
 247 0030 F1EE10FA 		vmrs	APSR_nzcv, FPSCR
 248 0034 10D0     		beq	.L9
  35:Controller.cpp **** 		m_daisyPod->seed.PrintLine("[%s] Pitch: %.2f Hz | Confidence: %.2f",
 249              		.loc 1 35 3 view .LVU49
 250              	.LVL16:
 251              	.LBB51:
 252              	.LBI51:
 253              		.file 3 "../../libDaisy//src/daisy_seed.h"
   1:../../libDaisy//src/daisy_seed.h **** #pragma once
   2:../../libDaisy//src/daisy_seed.h **** #ifndef DSY_SEED_H
   3:../../libDaisy//src/daisy_seed.h **** #define DSY_SEED_H
   4:../../libDaisy//src/daisy_seed.h **** 
   5:../../libDaisy//src/daisy_seed.h **** #include "daisy.h"
   6:../../libDaisy//src/daisy_seed.h **** 
   7:../../libDaisy//src/daisy_seed.h **** //Uncomment this out if you're still using the rev2 hardware
   8:../../libDaisy//src/daisy_seed.h **** //#define SEED_REV2
   9:../../libDaisy//src/daisy_seed.h **** 
  10:../../libDaisy//src/daisy_seed.h **** namespace daisy
  11:../../libDaisy//src/daisy_seed.h **** {
  12:../../libDaisy//src/daisy_seed.h **** /**
  13:../../libDaisy//src/daisy_seed.h ****    @brief This is the higher-level interface for the Daisy board. \n 
  14:../../libDaisy//src/daisy_seed.h ****     All basic peripheral configuration/initialization is setup here. \n
ARM GAS  C:\Users\micke\AppData\Local\Temp\ccVFxgtH.s 			page 7


  15:../../libDaisy//src/daisy_seed.h **** 
  16:../../libDaisy//src/daisy_seed.h ****    @ingroup boards
  17:../../libDaisy//src/daisy_seed.h **** */
  18:../../libDaisy//src/daisy_seed.h **** class DaisySeed
  19:../../libDaisy//src/daisy_seed.h **** {
  20:../../libDaisy//src/daisy_seed.h ****   public:
  21:../../libDaisy//src/daisy_seed.h ****     DaisySeed() {}
  22:../../libDaisy//src/daisy_seed.h ****     ~DaisySeed() {}
  23:../../libDaisy//src/daisy_seed.h **** 
  24:../../libDaisy//src/daisy_seed.h ****     /** This function used to provide a pre-initialization configuraiton 
  25:../../libDaisy//src/daisy_seed.h ****      *  it has since been deprecated, and does nothing.
  26:../../libDaisy//src/daisy_seed.h ****      */
  27:../../libDaisy//src/daisy_seed.h ****     void Configure();
  28:../../libDaisy//src/daisy_seed.h **** 
  29:../../libDaisy//src/daisy_seed.h ****     /** 
  30:../../libDaisy//src/daisy_seed.h ****     Initializes the Daisy Seed and the following peripherals:
  31:../../libDaisy//src/daisy_seed.h ****     SDRAM, QSPI, 24-bit 48kHz Audio via AK4556, Internal USB,
  32:../../libDaisy//src/daisy_seed.h ****     as well as the built-in LED and Testpoint.
  33:../../libDaisy//src/daisy_seed.h **** 
  34:../../libDaisy//src/daisy_seed.h ****     ADCs, DACs, and other special peripherals (such as I2C, SPI, etc.)
  35:../../libDaisy//src/daisy_seed.h ****     can be initialized using their specific initializers within libdaisy
  36:../../libDaisy//src/daisy_seed.h ****     for a specific application.
  37:../../libDaisy//src/daisy_seed.h ****     */
  38:../../libDaisy//src/daisy_seed.h ****     void Init(bool boost = false);
  39:../../libDaisy//src/daisy_seed.h **** 
  40:../../libDaisy//src/daisy_seed.h ****     /** 
  41:../../libDaisy//src/daisy_seed.h ****     Deinitializes all peripherals automatically handled by `Init`.
  42:../../libDaisy//src/daisy_seed.h ****     */
  43:../../libDaisy//src/daisy_seed.h ****     void DeInit();
  44:../../libDaisy//src/daisy_seed.h **** 
  45:../../libDaisy//src/daisy_seed.h ****     /** 
  46:../../libDaisy//src/daisy_seed.h ****     Wait some ms before going on.
  47:../../libDaisy//src/daisy_seed.h ****     \param del Delay time in ms.
  48:../../libDaisy//src/daisy_seed.h ****     */
  49:../../libDaisy//src/daisy_seed.h ****     void DelayMs(size_t del);
  50:../../libDaisy//src/daisy_seed.h **** 
  51:../../libDaisy//src/daisy_seed.h ****     /** 
  52:../../libDaisy//src/daisy_seed.h ****     Returns the gpio_pin corresponding to the index 0-31.
  53:../../libDaisy//src/daisy_seed.h ****     For the given GPIO on the Daisy Seed (labeled 1-32 in docs).
  54:../../libDaisy//src/daisy_seed.h ****     */
  55:../../libDaisy//src/daisy_seed.h ****     static dsy_gpio_pin GetPin(uint8_t pin_idx);
  56:../../libDaisy//src/daisy_seed.h **** 
  57:../../libDaisy//src/daisy_seed.h ****     /** Begins the audio for the seeds builtin audio.
  58:../../libDaisy//src/daisy_seed.h ****     the specified callback will get called whenever
  59:../../libDaisy//src/daisy_seed.h ****     new data is ready to be prepared.
  60:../../libDaisy//src/daisy_seed.h ****     */
  61:../../libDaisy//src/daisy_seed.h ****     void StartAudio(AudioHandle::InterleavingAudioCallback cb);
  62:../../libDaisy//src/daisy_seed.h **** 
  63:../../libDaisy//src/daisy_seed.h ****     /** Begins the audio for the seeds builtin audio.
  64:../../libDaisy//src/daisy_seed.h ****     the specified callback will get called whenever
  65:../../libDaisy//src/daisy_seed.h ****     new data is ready to be prepared.
  66:../../libDaisy//src/daisy_seed.h ****     This will use the newer non-interleaved callback.
  67:../../libDaisy//src/daisy_seed.h ****     */
  68:../../libDaisy//src/daisy_seed.h ****     void StartAudio(AudioHandle::AudioCallback cb);
  69:../../libDaisy//src/daisy_seed.h **** 
  70:../../libDaisy//src/daisy_seed.h ****     /** Changes to a new interleaved callback
  71:../../libDaisy//src/daisy_seed.h ****      */
ARM GAS  C:\Users\micke\AppData\Local\Temp\ccVFxgtH.s 			page 8


  72:../../libDaisy//src/daisy_seed.h ****     void ChangeAudioCallback(AudioHandle::InterleavingAudioCallback cb);
  73:../../libDaisy//src/daisy_seed.h **** 
  74:../../libDaisy//src/daisy_seed.h ****     /** Changes to a new multichannel callback
  75:../../libDaisy//src/daisy_seed.h ****      */
  76:../../libDaisy//src/daisy_seed.h ****     void ChangeAudioCallback(AudioHandle::AudioCallback cb);
  77:../../libDaisy//src/daisy_seed.h **** 
  78:../../libDaisy//src/daisy_seed.h ****     /** Stops the audio if it is running. */
  79:../../libDaisy//src/daisy_seed.h ****     void StopAudio();
  80:../../libDaisy//src/daisy_seed.h **** 
  81:../../libDaisy//src/daisy_seed.h ****     /** Updates the Audio Sample Rate, and reinitializes.
  82:../../libDaisy//src/daisy_seed.h ****      ** Audio must be stopped for this to work.
  83:../../libDaisy//src/daisy_seed.h ****      */
  84:../../libDaisy//src/daisy_seed.h ****     void SetAudioSampleRate(SaiHandle::Config::SampleRate samplerate);
  85:../../libDaisy//src/daisy_seed.h **** 
  86:../../libDaisy//src/daisy_seed.h ****     /** Returns the audio sample rate in Hz as a floating point number.
  87:../../libDaisy//src/daisy_seed.h ****      */
  88:../../libDaisy//src/daisy_seed.h ****     float AudioSampleRate();
  89:../../libDaisy//src/daisy_seed.h **** 
  90:../../libDaisy//src/daisy_seed.h ****     /** Sets the number of samples processed per channel by the audio callback.
  91:../../libDaisy//src/daisy_seed.h ****      */
  92:../../libDaisy//src/daisy_seed.h ****     void SetAudioBlockSize(size_t blocksize);
  93:../../libDaisy//src/daisy_seed.h **** 
  94:../../libDaisy//src/daisy_seed.h ****     /** Returns the number of samples per channel in a block of audio. */
  95:../../libDaisy//src/daisy_seed.h ****     size_t AudioBlockSize();
  96:../../libDaisy//src/daisy_seed.h **** 
  97:../../libDaisy//src/daisy_seed.h ****     /** Returns the rate in Hz that the Audio callback is called */
  98:../../libDaisy//src/daisy_seed.h ****     float AudioCallbackRate() const;
  99:../../libDaisy//src/daisy_seed.h **** 
 100:../../libDaisy//src/daisy_seed.h ****     /** Returns the SAI Handle for the Daisy Seed 
 101:../../libDaisy//src/daisy_seed.h ****      *  This can be useful when adding a secondary codec,
 102:../../libDaisy//src/daisy_seed.h ****      *  the result of this function can be passed to the audio reinit 
 103:../../libDaisy//src/daisy_seed.h ****      *  with an SAI2 configuration
 104:../../libDaisy//src/daisy_seed.h ****      */
 105:../../libDaisy//src/daisy_seed.h ****     const SaiHandle& AudioSaiHandle() const;
 106:../../libDaisy//src/daisy_seed.h **** 
 107:../../libDaisy//src/daisy_seed.h ****     /** Sets the state of the built in LED
 108:../../libDaisy//src/daisy_seed.h ****      */
 109:../../libDaisy//src/daisy_seed.h ****     void SetLed(bool state);
 110:../../libDaisy//src/daisy_seed.h **** 
 111:../../libDaisy//src/daisy_seed.h ****     /** Sets the state of the test point near pin 10
 112:../../libDaisy//src/daisy_seed.h ****      */
 113:../../libDaisy//src/daisy_seed.h ****     void SetTestPoint(bool state);
 114:../../libDaisy//src/daisy_seed.h **** 
 115:../../libDaisy//src/daisy_seed.h ****     /** Print formatted debug log message
 116:../../libDaisy//src/daisy_seed.h ****      */
 117:../../libDaisy//src/daisy_seed.h ****     template <typename... VA>
 118:../../libDaisy//src/daisy_seed.h ****     static void Print(const char* format, VA... va)
 119:../../libDaisy//src/daisy_seed.h ****     {
 120:../../libDaisy//src/daisy_seed.h ****         Log::Print(format, va...);
 121:../../libDaisy//src/daisy_seed.h ****     }
 122:../../libDaisy//src/daisy_seed.h **** 
 123:../../libDaisy//src/daisy_seed.h ****     /** Print formatted debug log message with automatic line termination
 124:../../libDaisy//src/daisy_seed.h ****     */
 125:../../libDaisy//src/daisy_seed.h ****     template <typename... VA>
 126:../../libDaisy//src/daisy_seed.h ****     static void PrintLine(const char* format, VA... va)
 254              		.loc 3 126 17 view .LVU50
 255              	.LBB52:
ARM GAS  C:\Users\micke\AppData\Local\Temp\ccVFxgtH.s 			page 9


 127:../../libDaisy//src/daisy_seed.h ****     {
 128:../../libDaisy//src/daisy_seed.h ****         Log::PrintLine(format, va...);
 256              		.loc 3 128 23 is_stmt 0 view .LVU51
 257 0036 9DED067A 		vldr.32	s14, [sp, #24]
 258 003a DDED056A 		vldr.32	s13, [sp, #20]
 259 003e B7EEC77A 		vcvt.f64.f32	d7, s14
 260 0042 0D48     		ldr	r0, .L18+8
 261 0044 B7EEE66A 		vcvt.f64.f32	d6, s13
 262 0048 8DED007B 		vstr.64	d7, [sp]
 263 004c 53EC162B 		vmov	r2, r3, d6
 264 0050 FFF7FEFF 		bl	_ZN5daisy6LoggerILNS_17LoggerDestinationE1EE9PrintLineEPKcz
 265              	.LVL17:
 266              		.loc 3 128 23 view .LVU52
 267              	.LBE52:
 268              	.LBE51:
  36:Controller.cpp ****             algName,
  37:Controller.cpp ****             result.frequency,
  38:Controller.cpp ****             result.confidence
  39:Controller.cpp ****             );
  40:Controller.cpp **** 	}
  41:Controller.cpp **** 	else {
  42:Controller.cpp **** 		m_daisyPod->seed.PrintLine("[%s] No pitch detected.",
  43:Controller.cpp **** 			algName);
  44:Controller.cpp **** 	}
  45:Controller.cpp **** 
  46:Controller.cpp **** }
 269              		.loc 1 46 1 view .LVU53
 270 0054 08B0     		add	sp, sp, #32
 271              		.cfi_remember_state
 272              		.cfi_def_cfa_offset 8
 273              		@ sp needed
 274 0056 10BD     		pop	{r4, pc}
 275              	.LVL18:
 276              	.L9:
 277              		.cfi_restore_state
  42:Controller.cpp **** 			algName);
 278              		.loc 1 42 3 is_stmt 1 view .LVU54
 279              	.LBB53:
 280              	.LBI53:
 126:../../libDaisy//src/daisy_seed.h ****     {
 281              		.loc 3 126 17 view .LVU55
 282              	.LBB54:
 283              		.loc 3 128 23 is_stmt 0 view .LVU56
 284 0058 0848     		ldr	r0, .L18+12
 285              	.LBE54:
 286              	.LBE53:
 287              		.loc 1 46 1 view .LVU57
 288 005a 08B0     		add	sp, sp, #32
 289              		.cfi_remember_state
 290              		.cfi_def_cfa_offset 8
 291              		@ sp needed
 292 005c BDE81040 		pop	{r4, lr}
 293              		.cfi_restore 14
 294              		.cfi_restore 4
 295              		.cfi_def_cfa_offset 0
 296              	.LVL19:
 297              	.LBB56:
ARM GAS  C:\Users\micke\AppData\Local\Temp\ccVFxgtH.s 			page 10


 298              	.LBB55:
 299              		.loc 3 128 23 view .LVU58
 300 0060 FFF7FEBF 		b	_ZN5daisy6LoggerILNS_17LoggerDestinationE1EE9PrintLineEPKcz
 301              	.LVL20:
 302              	.L17:
 303              		.cfi_restore_state
 304              		.loc 3 128 23 view .LVU59
 305              	.LBE55:
 306              	.LBE56:
 307              	.LBB57:
 308              	.LBB58:
 309 0064 0648     		ldr	r0, .L18+16
 310 0066 0391     		str	r1, [sp, #12]
 311              	.LBE58:
 312              	.LBE57:
  31:Controller.cpp **** 	}
 313              		.loc 1 31 3 is_stmt 1 view .LVU60
 314              	.LVL21:
 315              	.LBB60:
 316              	.LBI57:
 126:../../libDaisy//src/daisy_seed.h ****     {
 317              		.loc 3 126 17 view .LVU61
 318              	.LBB59:
 319              		.loc 3 128 23 is_stmt 0 view .LVU62
 320 0068 FFF7FEFF 		bl	_ZN5daisy6LoggerILNS_17LoggerDestinationE1EE9PrintLineEPKcz
 321              	.LVL22:
 322              		.loc 3 128 23 view .LVU63
 323 006c 0399     		ldr	r1, [sp, #12]
 129:../../libDaisy//src/daisy_seed.h ****     }
 324              		.loc 3 129 5 view .LVU64
 325 006e DBE7     		b	.L8
 326              	.L19:
 327              		.align	2
 328              	.L18:
 329 0070 00000000 		.word	.LC0
 330 0074 04000000 		.word	.LC1
 331 0078 2C000000 		.word	.LC3
 332 007c 54000000 		.word	.LC4
 333 0080 08000000 		.word	.LC2
 334              	.LBE59:
 335              	.LBE60:
 336              		.cfi_endproc
 337              	.LFE2574:
 339              		.section	.text._ZN10Controller9setBypassEb,"ax",%progbits
 340              		.align	1
 341              		.p2align 2,,3
 342              		.global	_ZN10Controller9setBypassEb
 343              		.syntax unified
 344              		.thumb
 345              		.thumb_func
 346              		.fpu fpv5-d16
 348              	_ZN10Controller9setBypassEb:
 349              	.LVL23:
 350              	.LFB2575:
  47:Controller.cpp **** 
  48:Controller.cpp **** void Controller::setBypass(bool bypass) {
 351              		.loc 1 48 41 is_stmt 1 view -0
ARM GAS  C:\Users\micke\AppData\Local\Temp\ccVFxgtH.s 			page 11


 352              		.cfi_startproc
 353              		@ args = 0, pretend = 0, frame = 0
 354              		@ frame_needed = 0, uses_anonymous_args = 0
  49:Controller.cpp **** 	bypass_ = bypass;
 355              		.loc 1 49 2 view .LVU66
  48:Controller.cpp **** 	bypass_ = bypass;
 356              		.loc 1 48 41 is_stmt 0 view .LVU67
 357 0000 38B5     		push	{r3, r4, r5, lr}
 358              		.cfi_def_cfa_offset 16
 359              		.cfi_offset 3, -16
 360              		.cfi_offset 4, -12
 361              		.cfi_offset 5, -8
 362              		.cfi_offset 14, -4
  48:Controller.cpp **** 	bypass_ = bypass;
 363              		.loc 1 48 41 view .LVU68
 364 0002 0446     		mov	r4, r0
 365 0004 0D46     		mov	r5, r1
  50:Controller.cpp **** 	m_pitchDetectorLeft->setBypass(bypass);
 366              		.loc 1 50 32 view .LVU69
 367 0006 0068     		ldr	r0, [r0]
 368              	.LVL24:
  49:Controller.cpp **** 	bypass_ = bypass;
 369              		.loc 1 49 10 view .LVU70
 370 0008 2173     		strb	r1, [r4, #12]
 371              		.loc 1 50 2 is_stmt 1 view .LVU71
 372              		.loc 1 50 32 is_stmt 0 view .LVU72
 373 000a FFF7FEFF 		bl	_ZN13PitchDetector9setBypassEb
 374              	.LVL25:
  51:Controller.cpp **** 	m_pitchDetectorRight->setBypass(bypass);
 375              		.loc 1 51 2 is_stmt 1 view .LVU73
 376              		.loc 1 51 33 is_stmt 0 view .LVU74
 377 000e 2946     		mov	r1, r5
 378 0010 6068     		ldr	r0, [r4, #4]
  52:Controller.cpp **** 	
  53:Controller.cpp **** }
 379              		.loc 1 53 1 view .LVU75
 380 0012 BDE83840 		pop	{r3, r4, r5, lr}
 381              		.cfi_restore 14
 382              		.cfi_restore 5
 383              		.cfi_restore 4
 384              		.cfi_restore 3
 385              		.cfi_def_cfa_offset 0
 386              	.LVL26:
  51:Controller.cpp **** 	m_pitchDetectorRight->setBypass(bypass);
 387              		.loc 1 51 33 view .LVU76
 388 0016 FFF7FEBF 		b	_ZN13PitchDetector9setBypassEb
 389              	.LVL27:
 390              		.cfi_endproc
 391              	.LFE2575:
 393 001a 00BF     		.section	.text._ZN10Controller10updateLEDsEv,"ax",%progbits
 394              		.align	1
 395              		.p2align 2,,3
 396              		.global	_ZN10Controller10updateLEDsEv
 397              		.syntax unified
 398              		.thumb
 399              		.thumb_func
 400              		.fpu fpv5-d16
ARM GAS  C:\Users\micke\AppData\Local\Temp\ccVFxgtH.s 			page 12


 402              	_ZN10Controller10updateLEDsEv:
 403              	.LVL28:
 404              	.LFB2576:
  54:Controller.cpp **** 
  55:Controller.cpp **** void Controller::updateLEDs() {
 405              		.loc 1 55 31 is_stmt 1 view -0
 406              		.cfi_startproc
 407              		@ args = 0, pretend = 0, frame = 16
 408              		@ frame_needed = 0, uses_anonymous_args = 0
  56:Controller.cpp **** 	// LED1 viser valgt algoritme
  57:Controller.cpp ****     m_daisyPod->led1.SetColor(currentAlgorithm_ == ALG_YIN ? colorYIN_ : colorACF_);
 409              		.loc 1 57 5 view .LVU78
  55:Controller.cpp **** 	// LED1 viser valgt algoritme
 410              		.loc 1 55 31 is_stmt 0 view .LVU79
 411 0000 30B5     		push	{r4, r5, lr}
 412              		.cfi_def_cfa_offset 12
 413              		.cfi_offset 4, -12
 414              		.cfi_offset 5, -8
 415              		.cfi_offset 14, -4
 416 0002 0446     		mov	r4, r0
 417              		.loc 1 57 30 view .LVU80
 418 0004 8068     		ldr	r0, [r0, #8]
 419              	.LVL29:
  55:Controller.cpp **** 	// LED1 viser valgt algoritme
 420              		.loc 1 55 31 view .LVU81
 421 0006 85B0     		sub	sp, sp, #20
 422              		.cfi_def_cfa_offset 32
 423              		.loc 1 57 60 view .LVU82
 424 0008 627B     		ldrb	r2, [r4, #13]	@ zero_extendqisi2
 425              		.loc 1 57 30 view .LVU83
 426 000a 00F1D803 		add	r3, r0, #216
 427              		.loc 1 57 60 view .LVU84
 428 000e EAB9     		cbnz	r2, .L23
 429              		.loc 1 57 60 discriminator 1 view .LVU85
 430 0010 04F11002 		add	r2, r4, #16
 431              	.L24:
 432              		.loc 1 57 30 discriminator 4 view .LVU86
 433 0014 01AD     		add	r5, sp, #4
 434 0016 07CA     		ldm	r2, {r0, r1, r2}
 435 0018 85E80700 		stm	r5, {r0, r1, r2}
 436 001c 1846     		mov	r0, r3
 437 001e 2946     		mov	r1, r5
 438 0020 FFF7FEFF 		bl	_ZN5daisy6RgbLed8SetColorENS_5ColorE
 439              	.LVL30:
 440              	.LBB61:
 441              	.LBI61:
 442              		.loc 2 27 5 is_stmt 1 discriminator 4 view .LVU87
 443              		.loc 2 27 5 is_stmt 0 discriminator 4 view .LVU88
 444              	.LBE61:
  58:Controller.cpp **** 
  59:Controller.cpp ****     // LED2 viser om detection er aktiv
  60:Controller.cpp ****     m_daisyPod->led2.SetColor(bypass_ ? colorOff_ : colorActive_);
 445              		.loc 1 60 5 is_stmt 1 discriminator 4 view .LVU89
 446              		.loc 1 60 30 is_stmt 0 discriminator 4 view .LVU90
 447 0024 A068     		ldr	r0, [r4, #8]
 448              		.loc 1 60 39 discriminator 4 view .LVU91
 449 0026 227B     		ldrb	r2, [r4, #12]	@ zero_extendqisi2
ARM GAS  C:\Users\micke\AppData\Local\Temp\ccVFxgtH.s 			page 13


 450              		.loc 1 60 30 discriminator 4 view .LVU92
 451 0028 00F59673 		add	r3, r0, #300
 452              		.loc 1 60 39 discriminator 4 view .LVU93
 453 002c 8AB1     		cbz	r2, .L25
 454              		.loc 1 60 39 discriminator 1 view .LVU94
 455 002e 04F13402 		add	r2, r4, #52
 456              	.L26:
 457              		.loc 1 60 30 discriminator 4 view .LVU95
 458 0032 07CA     		ldm	r2, {r0, r1, r2}
 459 0034 85E80700 		stm	r5, {r0, r1, r2}
 460 0038 1846     		mov	r0, r3
 461 003a 2946     		mov	r1, r5
 462 003c FFF7FEFF 		bl	_ZN5daisy6RgbLed8SetColorENS_5ColorE
 463              	.LVL31:
 464              	.LBB62:
 465              	.LBI62:
 466              		.loc 2 27 5 is_stmt 1 discriminator 4 view .LVU96
 467              		.loc 2 27 5 is_stmt 0 discriminator 4 view .LVU97
 468              	.LBE62:
  61:Controller.cpp **** 
  62:Controller.cpp ****     m_daisyPod->UpdateLeds();
 469              		.loc 1 62 5 is_stmt 1 discriminator 4 view .LVU98
 470              		.loc 1 62 27 is_stmt 0 discriminator 4 view .LVU99
 471 0040 A068     		ldr	r0, [r4, #8]
  63:Controller.cpp **** }
 472              		.loc 1 63 1 discriminator 4 view .LVU100
 473 0042 05B0     		add	sp, sp, #20
 474              		.cfi_remember_state
 475              		.cfi_def_cfa_offset 12
 476              		@ sp needed
 477 0044 BDE83040 		pop	{r4, r5, lr}
 478              		.cfi_restore 14
 479              		.cfi_restore 5
 480              		.cfi_restore 4
 481              		.cfi_def_cfa_offset 0
 482              	.LVL32:
  62:Controller.cpp **** }
 483              		.loc 1 62 27 discriminator 4 view .LVU101
 484 0048 FFF7FEBF 		b	_ZN5daisy8DaisyPod10UpdateLedsEv
 485              	.LVL33:
 486              	.L23:
 487              		.cfi_restore_state
  57:Controller.cpp **** 
 488              		.loc 1 57 60 discriminator 2 view .LVU102
 489 004c 04F11C02 		add	r2, r4, #28
 490 0050 E0E7     		b	.L24
 491              	.L25:
  60:Controller.cpp **** 
 492              		.loc 1 60 39 discriminator 2 view .LVU103
 493 0052 04F12802 		add	r2, r4, #40
 494 0056 ECE7     		b	.L26
 495              		.cfi_endproc
 496              	.LFE2576:
 498              		.section	.text._ZN10Controller7ProcessEv,"ax",%progbits
 499              		.align	1
 500              		.p2align 2,,3
 501              		.global	_ZN10Controller7ProcessEv
ARM GAS  C:\Users\micke\AppData\Local\Temp\ccVFxgtH.s 			page 14


 502              		.syntax unified
 503              		.thumb
 504              		.thumb_func
 505              		.fpu fpv5-d16
 507              	_ZN10Controller7ProcessEv:
 508              	.LVL34:
 509              	.LFB2577:
  64:Controller.cpp **** 
  65:Controller.cpp **** void Controller::Process() 
  66:Controller.cpp **** {
 510              		.loc 1 66 1 is_stmt 1 view -0
 511              		.cfi_startproc
 512              		@ args = 0, pretend = 0, frame = 8
 513              		@ frame_needed = 0, uses_anonymous_args = 0
  67:Controller.cpp **** 	 m_daisyPod->ProcessAllControls();
 514              		.loc 1 67 3 view .LVU105
  66:Controller.cpp **** 	 m_daisyPod->ProcessAllControls();
 515              		.loc 1 66 1 is_stmt 0 view .LVU106
 516 0000 30B5     		push	{r4, r5, lr}
 517              		.cfi_def_cfa_offset 12
 518              		.cfi_offset 4, -12
 519              		.cfi_offset 5, -8
 520              		.cfi_offset 14, -4
 521 0002 0446     		mov	r4, r0
 522 0004 83B0     		sub	sp, sp, #12
 523              		.cfi_def_cfa_offset 24
 524              		.loc 1 67 3 view .LVU107
 525 0006 8068     		ldr	r0, [r0, #8]
 526              	.LVL35:
 527              	.LBB77:
 528              	.LBI77:
 529              		.file 4 "../../libDaisy//src/daisy_pod.h"
   1:../../libDaisy//src/daisy_pod.h **** #pragma once
   2:../../libDaisy//src/daisy_pod.h **** #ifndef DSY_POD_BSP_H
   3:../../libDaisy//src/daisy_pod.h **** #define DSY_POD_BSP_H
   4:../../libDaisy//src/daisy_pod.h **** 
   5:../../libDaisy//src/daisy_pod.h **** #include "daisy_seed.h"
   6:../../libDaisy//src/daisy_pod.h **** 
   7:../../libDaisy//src/daisy_pod.h **** namespace daisy
   8:../../libDaisy//src/daisy_pod.h **** {
   9:../../libDaisy//src/daisy_pod.h **** /**
  10:../../libDaisy//src/daisy_pod.h ****     @brief Class that handles initializing all of the hardware specific to the Daisy Patch Board. \
  11:../../libDaisy//src/daisy_pod.h ****     Helper funtions are also in place to provide easy access to built-in controls and peripherals.
  12:../../libDaisy//src/daisy_pod.h ****     @author Stephen Hensley
  13:../../libDaisy//src/daisy_pod.h ****     @date November 2019
  14:../../libDaisy//src/daisy_pod.h ****     @ingroup boards
  15:../../libDaisy//src/daisy_pod.h **** */
  16:../../libDaisy//src/daisy_pod.h **** class DaisyPod
  17:../../libDaisy//src/daisy_pod.h **** {
  18:../../libDaisy//src/daisy_pod.h ****   public:
  19:../../libDaisy//src/daisy_pod.h ****     /** Switches */
  20:../../libDaisy//src/daisy_pod.h ****     enum Sw
  21:../../libDaisy//src/daisy_pod.h ****     {
  22:../../libDaisy//src/daisy_pod.h ****         BUTTON_1,    /** & */
  23:../../libDaisy//src/daisy_pod.h ****         BUTTON_2,    /** & */
  24:../../libDaisy//src/daisy_pod.h ****         BUTTON_LAST, /** &  */
  25:../../libDaisy//src/daisy_pod.h ****     };
ARM GAS  C:\Users\micke\AppData\Local\Temp\ccVFxgtH.s 			page 15


  26:../../libDaisy//src/daisy_pod.h **** 
  27:../../libDaisy//src/daisy_pod.h ****     /** Knobs */
  28:../../libDaisy//src/daisy_pod.h ****     enum Knob
  29:../../libDaisy//src/daisy_pod.h ****     {
  30:../../libDaisy//src/daisy_pod.h ****         KNOB_1,    /** &  */
  31:../../libDaisy//src/daisy_pod.h ****         KNOB_2,    /** & */
  32:../../libDaisy//src/daisy_pod.h ****         KNOB_LAST, /** & */
  33:../../libDaisy//src/daisy_pod.h ****     };
  34:../../libDaisy//src/daisy_pod.h **** 
  35:../../libDaisy//src/daisy_pod.h ****     DaisyPod() {}
  36:../../libDaisy//src/daisy_pod.h ****     ~DaisyPod() {}
  37:../../libDaisy//src/daisy_pod.h **** 
  38:../../libDaisy//src/daisy_pod.h ****     /** Init related stuff. */
  39:../../libDaisy//src/daisy_pod.h ****     void Init(bool boost = false);
  40:../../libDaisy//src/daisy_pod.h **** 
  41:../../libDaisy//src/daisy_pod.h ****     /** Wait for a bit
  42:../../libDaisy//src/daisy_pod.h ****     \param del Time to wait in ms.
  43:../../libDaisy//src/daisy_pod.h ****     */
  44:../../libDaisy//src/daisy_pod.h ****     void DelayMs(size_t del);
  45:../../libDaisy//src/daisy_pod.h **** 
  46:../../libDaisy//src/daisy_pod.h ****     /** Starts the callback
  47:../../libDaisy//src/daisy_pod.h ****     \param cb Interleaved callback function
  48:../../libDaisy//src/daisy_pod.h ****     */
  49:../../libDaisy//src/daisy_pod.h ****     void StartAudio(AudioHandle::InterleavingAudioCallback cb);
  50:../../libDaisy//src/daisy_pod.h **** 
  51:../../libDaisy//src/daisy_pod.h ****     /** Starts the callback
  52:../../libDaisy//src/daisy_pod.h ****     \param cb multichannel callback function
  53:../../libDaisy//src/daisy_pod.h ****     */
  54:../../libDaisy//src/daisy_pod.h ****     void StartAudio(AudioHandle::AudioCallback cb);
  55:../../libDaisy//src/daisy_pod.h **** 
  56:../../libDaisy//src/daisy_pod.h ****     /**
  57:../../libDaisy//src/daisy_pod.h ****        Switch callback functions
  58:../../libDaisy//src/daisy_pod.h ****        \param cb New interleaved callback function.
  59:../../libDaisy//src/daisy_pod.h ****     */
  60:../../libDaisy//src/daisy_pod.h ****     void ChangeAudioCallback(AudioHandle::InterleavingAudioCallback cb);
  61:../../libDaisy//src/daisy_pod.h **** 
  62:../../libDaisy//src/daisy_pod.h ****     /**
  63:../../libDaisy//src/daisy_pod.h ****        Switch callback functions
  64:../../libDaisy//src/daisy_pod.h ****        \param cb New multichannel callback function.
  65:../../libDaisy//src/daisy_pod.h ****     */
  66:../../libDaisy//src/daisy_pod.h ****     void ChangeAudioCallback(AudioHandle::AudioCallback cb);
  67:../../libDaisy//src/daisy_pod.h **** 
  68:../../libDaisy//src/daisy_pod.h ****     /** Stops the audio if it is running. */
  69:../../libDaisy//src/daisy_pod.h ****     void StopAudio();
  70:../../libDaisy//src/daisy_pod.h **** 
  71:../../libDaisy//src/daisy_pod.h ****     /** Updates the Audio Sample Rate, and reinitializes.
  72:../../libDaisy//src/daisy_pod.h ****      ** Audio must be stopped for this to work.
  73:../../libDaisy//src/daisy_pod.h ****      */
  74:../../libDaisy//src/daisy_pod.h ****     void SetAudioSampleRate(SaiHandle::Config::SampleRate samplerate);
  75:../../libDaisy//src/daisy_pod.h **** 
  76:../../libDaisy//src/daisy_pod.h ****     /** Returns the audio sample rate in Hz as a floating point number.
  77:../../libDaisy//src/daisy_pod.h ****      */
  78:../../libDaisy//src/daisy_pod.h ****     float AudioSampleRate();
  79:../../libDaisy//src/daisy_pod.h **** 
  80:../../libDaisy//src/daisy_pod.h ****     /** Sets the number of samples processed per channel by the audio callback.
  81:../../libDaisy//src/daisy_pod.h ****      */
  82:../../libDaisy//src/daisy_pod.h ****     void SetAudioBlockSize(size_t blocksize);
ARM GAS  C:\Users\micke\AppData\Local\Temp\ccVFxgtH.s 			page 16


  83:../../libDaisy//src/daisy_pod.h **** 
  84:../../libDaisy//src/daisy_pod.h ****     /** Returns the number of samples per channel in a block of audio. */
  85:../../libDaisy//src/daisy_pod.h ****     size_t AudioBlockSize();
  86:../../libDaisy//src/daisy_pod.h **** 
  87:../../libDaisy//src/daisy_pod.h ****     /** Returns the rate in Hz that the Audio callback is called */
  88:../../libDaisy//src/daisy_pod.h ****     float AudioCallbackRate();
  89:../../libDaisy//src/daisy_pod.h **** 
  90:../../libDaisy//src/daisy_pod.h ****     /**
  91:../../libDaisy//src/daisy_pod.h ****        Start analog to digital conversion.
  92:../../libDaisy//src/daisy_pod.h ****      */
  93:../../libDaisy//src/daisy_pod.h ****     void StartAdc();
  94:../../libDaisy//src/daisy_pod.h **** 
  95:../../libDaisy//src/daisy_pod.h ****     /** Stops Transfering data from the ADC */
  96:../../libDaisy//src/daisy_pod.h ****     void StopAdc();
  97:../../libDaisy//src/daisy_pod.h **** 
  98:../../libDaisy//src/daisy_pod.h ****     /** Call at same rate as analog reads for smooth reading.*/
  99:../../libDaisy//src/daisy_pod.h ****     void ProcessAnalogControls();
 100:../../libDaisy//src/daisy_pod.h **** 
 101:../../libDaisy//src/daisy_pod.h ****     /** Process Analog and Digital Controls */
 102:../../libDaisy//src/daisy_pod.h ****     inline void ProcessAllControls()
 530              		.loc 4 102 17 is_stmt 1 view .LVU108
 531              	.LBB78:
 103:../../libDaisy//src/daisy_pod.h ****     {
 104:../../libDaisy//src/daisy_pod.h ****         ProcessAnalogControls();
 532              		.loc 4 104 9 view .LVU109
 533              		.loc 4 104 30 is_stmt 0 view .LVU110
 534 0008 0190     		str	r0, [sp, #4]
 535 000a FFF7FEFF 		bl	_ZN5daisy8DaisyPod21ProcessAnalogControlsEv
 536              	.LVL36:
 105:../../libDaisy//src/daisy_pod.h ****         ProcessDigitalControls();
 537              		.loc 4 105 9 is_stmt 1 view .LVU111
 538              		.loc 4 105 31 is_stmt 0 view .LVU112
 539 000e 0198     		ldr	r0, [sp, #4]
 540 0010 FFF7FEFF 		bl	_ZN5daisy8DaisyPod22ProcessDigitalControlsEv
 541              	.LVL37:
 542              		.loc 4 105 31 view .LVU113
 543              	.LBE78:
 544              	.LBE77:
  68:Controller.cpp **** 
  69:Controller.cpp ****     // SW1 er YIN
  70:Controller.cpp ****     if (m_daisyPod->button1.RisingEdge()) {
 545              		.loc 1 70 5 is_stmt 1 view .LVU114
 546              		.loc 1 70 9 is_stmt 0 view .LVU115
 547 0014 A368     		ldr	r3, [r4, #8]
 548              	.LVL38:
 549              	.LBB79:
 550              	.LBI79:
 551              		.file 5 "../../libDaisy//src/hid/switch.h"
   1:../../libDaisy//src/hid/switch.h **** #pragma once
   2:../../libDaisy//src/hid/switch.h **** #ifndef DSY_SWITCH_H
   3:../../libDaisy//src/hid/switch.h **** #define DSY_SWITCH_H
   4:../../libDaisy//src/hid/switch.h **** #include "daisy_core.h"
   5:../../libDaisy//src/hid/switch.h **** #include "per/gpio.h"
   6:../../libDaisy//src/hid/switch.h **** #include "sys/system.h"
   7:../../libDaisy//src/hid/switch.h **** 
   8:../../libDaisy//src/hid/switch.h **** namespace daisy
   9:../../libDaisy//src/hid/switch.h **** {
ARM GAS  C:\Users\micke\AppData\Local\Temp\ccVFxgtH.s 			page 17


  10:../../libDaisy//src/hid/switch.h **** /** 
  11:../../libDaisy//src/hid/switch.h ****     Generic Class for handling momentary/latching switches \n 
  12:../../libDaisy//src/hid/switch.h ****     Inspired/influenced by Mutable Instruments (pichenettes) Switch classes
  13:../../libDaisy//src/hid/switch.h ****     @author Stephen Hensley
  14:../../libDaisy//src/hid/switch.h ****     @date December 2019
  15:../../libDaisy//src/hid/switch.h ****     @ingroup controls
  16:../../libDaisy//src/hid/switch.h **** */
  17:../../libDaisy//src/hid/switch.h **** class Switch
  18:../../libDaisy//src/hid/switch.h **** {
  19:../../libDaisy//src/hid/switch.h ****   public:
  20:../../libDaisy//src/hid/switch.h ****     /** Specifies the expected behavior of the switch */
  21:../../libDaisy//src/hid/switch.h ****     enum Type
  22:../../libDaisy//src/hid/switch.h ****     {
  23:../../libDaisy//src/hid/switch.h ****         TYPE_TOGGLE,    /**< & */
  24:../../libDaisy//src/hid/switch.h ****         TYPE_MOMENTARY, /**< & */
  25:../../libDaisy//src/hid/switch.h ****     };
  26:../../libDaisy//src/hid/switch.h ****     /** Specifies whether the pressed is HIGH or LOW. */
  27:../../libDaisy//src/hid/switch.h ****     enum Polarity
  28:../../libDaisy//src/hid/switch.h ****     {
  29:../../libDaisy//src/hid/switch.h ****         POLARITY_NORMAL,   /**< & */
  30:../../libDaisy//src/hid/switch.h ****         POLARITY_INVERTED, /**< & */
  31:../../libDaisy//src/hid/switch.h ****     };
  32:../../libDaisy//src/hid/switch.h **** 
  33:../../libDaisy//src/hid/switch.h ****     /** Specifies whether to use built-in Pull Up/Down resistors to hold button at a given state wh
  34:../../libDaisy//src/hid/switch.h ****     enum Pull
  35:../../libDaisy//src/hid/switch.h ****     {
  36:../../libDaisy//src/hid/switch.h ****         PULL_UP,   /**< & */
  37:../../libDaisy//src/hid/switch.h ****         PULL_DOWN, /**< & */
  38:../../libDaisy//src/hid/switch.h ****         PULL_NONE, /**< & */
  39:../../libDaisy//src/hid/switch.h ****     };
  40:../../libDaisy//src/hid/switch.h **** 
  41:../../libDaisy//src/hid/switch.h ****     Switch() {}
  42:../../libDaisy//src/hid/switch.h ****     ~Switch() {}
  43:../../libDaisy//src/hid/switch.h **** 
  44:../../libDaisy//src/hid/switch.h ****     /** 
  45:../../libDaisy//src/hid/switch.h ****     Initializes the switch object with a given port/pin combo.
  46:../../libDaisy//src/hid/switch.h ****     \param pin port/pin object to tell the switch which hardware pin to use.
  47:../../libDaisy//src/hid/switch.h ****     \param update_rate Does nothing. Backwards compatibility until next breaking update.
  48:../../libDaisy//src/hid/switch.h ****     \param t switch type -- Default: TYPE_MOMENTARY
  49:../../libDaisy//src/hid/switch.h ****     \param pol switch polarity -- Default: POLARITY_INVERTED
  50:../../libDaisy//src/hid/switch.h ****     \param pu switch pull up/down -- Default: PULL_UP
  51:../../libDaisy//src/hid/switch.h ****     */
  52:../../libDaisy//src/hid/switch.h ****     void
  53:../../libDaisy//src/hid/switch.h ****     Init(dsy_gpio_pin pin, float update_rate, Type t, Polarity pol, Pull pu);
  54:../../libDaisy//src/hid/switch.h **** 
  55:../../libDaisy//src/hid/switch.h ****     /**
  56:../../libDaisy//src/hid/switch.h ****        Simplified Init.
  57:../../libDaisy//src/hid/switch.h ****        \param pin port/pin object to tell the switch which hardware pin to use.
  58:../../libDaisy//src/hid/switch.h ****        \param update_rate Left for backwards compatibility until next breaking change.
  59:../../libDaisy//src/hid/switch.h ****     */
  60:../../libDaisy//src/hid/switch.h ****     void Init(dsy_gpio_pin pin, float update_rate = 0.f);
  61:../../libDaisy//src/hid/switch.h **** 
  62:../../libDaisy//src/hid/switch.h ****     /** 
  63:../../libDaisy//src/hid/switch.h ****     Called at update_rate to debounce and handle timing for the switch.
  64:../../libDaisy//src/hid/switch.h ****     In order for events not to be missed, its important that the Edge/Pressed checks
  65:../../libDaisy//src/hid/switch.h ****     be made at the same rate as the debounce function is being called.
  66:../../libDaisy//src/hid/switch.h ****     */
ARM GAS  C:\Users\micke\AppData\Local\Temp\ccVFxgtH.s 			page 18


  67:../../libDaisy//src/hid/switch.h ****     void Debounce();
  68:../../libDaisy//src/hid/switch.h **** 
  69:../../libDaisy//src/hid/switch.h ****     /** \return true if a button was just pressed. */
  70:../../libDaisy//src/hid/switch.h ****     inline bool RisingEdge() const { return updated_ ? state_ == 0x7f : false; }
 552              		.loc 5 70 17 is_stmt 1 view .LVU116
 553              	.LBB80:
 554              		.loc 5 70 38 view .LVU117
 555              		.loc 5 70 54 is_stmt 0 view .LVU118
 556 0016 93F8B420 		ldrb	r2, [r3, #180]	@ zero_extendqisi2
 557 001a 1AB1     		cbz	r2, .L29
 558              	.LVL39:
 559              		.loc 5 70 54 view .LVU119
 560              	.LBE80:
 561              	.LBE79:
 562              		.loc 1 70 5 view .LVU120
 563 001c 93F8BA20 		ldrb	r2, [r3, #186]	@ zero_extendqisi2
 564 0020 7F2A     		cmp	r2, #127
 565 0022 1BD0     		beq	.L44
 566              	.L29:
  71:Controller.cpp ****         if (bypass_) {
  72:Controller.cpp ****             setBypass(false);
  73:Controller.cpp ****             currentAlgorithm_ = ALG_YIN;
  74:Controller.cpp ****         } else if (currentAlgorithm_ != ALG_YIN) {
  75:Controller.cpp ****             currentAlgorithm_ = ALG_YIN;
  76:Controller.cpp ****         } else {
  77:Controller.cpp ****             
  78:Controller.cpp ****             setBypass(true);
  79:Controller.cpp ****         }
  80:Controller.cpp ****         m_pitchDetectorLeft->setAlgorithm(currentAlgorithm_);
  81:Controller.cpp ****         m_pitchDetectorRight->setAlgorithm(currentAlgorithm_);
  82:Controller.cpp ****     }
  83:Controller.cpp **** 
  84:Controller.cpp ****     // autororelation
  85:Controller.cpp ****     if (m_daisyPod->button2.RisingEdge()) {
 567              		.loc 1 85 5 is_stmt 1 view .LVU121
 568              	.LVL40:
 569              	.LBB81:
 570              	.LBI81:
 571              		.loc 5 70 17 view .LVU122
 572              	.LBB82:
 573              		.loc 5 70 38 view .LVU123
 574              		.loc 5 70 54 is_stmt 0 view .LVU124
 575 0024 93F8C420 		ldrb	r2, [r3, #196]	@ zero_extendqisi2
 576 0028 92B1     		cbz	r2, .L33
 577              	.LVL41:
 578              		.loc 5 70 54 view .LVU125
 579              	.LBE82:
 580              	.LBE81:
 581              		.loc 1 85 5 view .LVU126
 582 002a 93F8CA30 		ldrb	r3, [r3, #202]	@ zero_extendqisi2
 583 002e 7F2B     		cmp	r3, #127
 584 0030 0ED1     		bne	.L33
  86:Controller.cpp ****         if (bypass_) {
 585              		.loc 1 86 9 is_stmt 1 view .LVU127
 586 0032 237B     		ldrb	r3, [r4, #12]	@ zero_extendqisi2
 587 0034 73BB     		cbnz	r3, .L45
  87:Controller.cpp ****             setBypass(false);
ARM GAS  C:\Users\micke\AppData\Local\Temp\ccVFxgtH.s 			page 19


  88:Controller.cpp ****             currentAlgorithm_ = ALG_AUTOCORRELATION;
  89:Controller.cpp ****         } else if (currentAlgorithm_ != ALG_AUTOCORRELATION) {
 588              		.loc 1 89 16 view .LVU128
 589 0036 657B     		ldrb	r5, [r4, #13]	@ zero_extendqisi2
 590 0038 012D     		cmp	r5, #1
 591 003a 45D0     		beq	.L36
  90:Controller.cpp ****             currentAlgorithm_ = ALG_AUTOCORRELATION;
 592              		.loc 1 90 13 view .LVU129
 593              		.loc 1 90 31 is_stmt 0 view .LVU130
 594 003c 0123     		movs	r3, #1
 595 003e 1946     		mov	r1, r3
 596 0040 6373     		strb	r3, [r4, #13]
 597              	.L35:
  91:Controller.cpp ****         } else {
  92:Controller.cpp ****             
  93:Controller.cpp ****             setBypass(true);
  94:Controller.cpp ****         }
  95:Controller.cpp ****         m_pitchDetectorLeft->setAlgorithm(currentAlgorithm_);
 598              		.loc 1 95 9 is_stmt 1 view .LVU131
 599              		.loc 1 95 42 is_stmt 0 view .LVU132
 600 0042 2068     		ldr	r0, [r4]
 601 0044 FFF7FEFF 		bl	_ZN13PitchDetector12setAlgorithmE20PitchAlgorithmSelect
 602              	.LVL42:
  96:Controller.cpp ****         m_pitchDetectorRight->setAlgorithm(currentAlgorithm_);
 603              		.loc 1 96 9 is_stmt 1 view .LVU133
 604              		.loc 1 96 43 is_stmt 0 view .LVU134
 605 0048 617B     		ldrb	r1, [r4, #13]	@ zero_extendqisi2
 606 004a 6068     		ldr	r0, [r4, #4]
 607 004c FFF7FEFF 		bl	_ZN13PitchDetector12setAlgorithmE20PitchAlgorithmSelect
 608              	.LVL43:
 609              	.L33:
  97:Controller.cpp ****     }
  98:Controller.cpp **** 
  99:Controller.cpp ****     updateLEDs();
 610              		.loc 1 99 5 is_stmt 1 view .LVU135
 611              		.loc 1 99 15 is_stmt 0 view .LVU136
 612 0050 2046     		mov	r0, r4
 100:Controller.cpp **** 
 101:Controller.cpp **** 
 102:Controller.cpp **** }...
 613              		.loc 1 102 1 view .LVU137
 614 0052 03B0     		add	sp, sp, #12
 615              		.cfi_remember_state
 616              		.cfi_def_cfa_offset 12
 617              		@ sp needed
 618 0054 BDE83040 		pop	{r4, r5, lr}
 619              		.cfi_restore 14
 620              		.cfi_restore 5
 621              		.cfi_restore 4
 622              		.cfi_def_cfa_offset 0
 623              	.LVL44:
  99:Controller.cpp ****     updateLEDs();
 624              		.loc 1 99 15 view .LVU138
 625 0058 FFF7FEBF 		b	_ZN10Controller10updateLEDsEv
 626              	.LVL45:
 627              	.L44:
 628              		.cfi_restore_state
ARM GAS  C:\Users\micke\AppData\Local\Temp\ccVFxgtH.s 			page 20


  71:Controller.cpp ****         if (bypass_) {
 629              		.loc 1 71 9 is_stmt 1 view .LVU139
 630 005c 237B     		ldrb	r3, [r4, #12]	@ zero_extendqisi2
 631 005e 63B9     		cbnz	r3, .L46
  74:Controller.cpp ****         } else if (currentAlgorithm_ != ALG_YIN) {
 632              		.loc 1 74 16 view .LVU140
 633 0060 627B     		ldrb	r2, [r4, #13]	@ zero_extendqisi2
 634 0062 2AB3     		cbz	r2, .L32
  75:Controller.cpp ****             currentAlgorithm_ = ALG_YIN;
 635              		.loc 1 75 13 view .LVU141
 636 0064 1946     		mov	r1, r3
  75:Controller.cpp ****             currentAlgorithm_ = ALG_YIN;
 637              		.loc 1 75 31 is_stmt 0 view .LVU142
 638 0066 6373     		strb	r3, [r4, #13]
 639              	.L31:
  80:Controller.cpp ****         m_pitchDetectorLeft->setAlgorithm(currentAlgorithm_);
 640              		.loc 1 80 9 is_stmt 1 view .LVU143
  80:Controller.cpp ****         m_pitchDetectorLeft->setAlgorithm(currentAlgorithm_);
 641              		.loc 1 80 42 is_stmt 0 view .LVU144
 642 0068 2068     		ldr	r0, [r4]
 643 006a FFF7FEFF 		bl	_ZN13PitchDetector12setAlgorithmE20PitchAlgorithmSelect
 644              	.LVL46:
  81:Controller.cpp ****         m_pitchDetectorRight->setAlgorithm(currentAlgorithm_);
 645              		.loc 1 81 9 is_stmt 1 view .LVU145
  81:Controller.cpp ****         m_pitchDetectorRight->setAlgorithm(currentAlgorithm_);
 646              		.loc 1 81 43 is_stmt 0 view .LVU146
 647 006e 617B     		ldrb	r1, [r4, #13]	@ zero_extendqisi2
 648 0070 6068     		ldr	r0, [r4, #4]
 649 0072 FFF7FEFF 		bl	_ZN13PitchDetector12setAlgorithmE20PitchAlgorithmSelect
 650              	.LVL47:
  85:Controller.cpp ****     if (m_daisyPod->button2.RisingEdge()) {
 651              		.loc 1 85 9 view .LVU147
 652 0076 A368     		ldr	r3, [r4, #8]
 653 0078 D4E7     		b	.L29
 654              	.L46:
  72:Controller.cpp ****             setBypass(false);
 655              		.loc 1 72 13 is_stmt 1 view .LVU148
 656              	.LVL48:
 657              	.LBB83:
 658              	.LBI83:
  48:Controller.cpp **** void Controller::setBypass(bool bypass) {
 659              		.loc 1 48 6 view .LVU149
 660              	.LBB84:
  49:Controller.cpp **** 	bypass_ = bypass;
 661              		.loc 1 49 2 view .LVU150
  49:Controller.cpp **** 	bypass_ = bypass;
 662              		.loc 1 49 10 is_stmt 0 view .LVU151
 663 007a 0025     		movs	r5, #0
  50:Controller.cpp **** 	m_pitchDetectorLeft->setBypass(bypass);
 664              		.loc 1 50 32 view .LVU152
 665 007c 2068     		ldr	r0, [r4]
 666 007e 2946     		mov	r1, r5
  49:Controller.cpp **** 	bypass_ = bypass;
 667              		.loc 1 49 10 view .LVU153
 668 0080 2573     		strb	r5, [r4, #12]
  50:Controller.cpp **** 	m_pitchDetectorLeft->setBypass(bypass);
 669              		.loc 1 50 2 is_stmt 1 view .LVU154
ARM GAS  C:\Users\micke\AppData\Local\Temp\ccVFxgtH.s 			page 21


  50:Controller.cpp **** 	m_pitchDetectorLeft->setBypass(bypass);
 670              		.loc 1 50 32 is_stmt 0 view .LVU155
 671 0082 FFF7FEFF 		bl	_ZN13PitchDetector9setBypassEb
 672              	.LVL49:
  51:Controller.cpp **** 	m_pitchDetectorRight->setBypass(bypass);
 673              		.loc 1 51 2 is_stmt 1 view .LVU156
  51:Controller.cpp **** 	m_pitchDetectorRight->setBypass(bypass);
 674              		.loc 1 51 33 is_stmt 0 view .LVU157
 675 0086 2946     		mov	r1, r5
 676 0088 6068     		ldr	r0, [r4, #4]
 677 008a FFF7FEFF 		bl	_ZN13PitchDetector9setBypassEb
 678              	.LVL50:
  51:Controller.cpp **** 	m_pitchDetectorRight->setBypass(bypass);
 679              		.loc 1 51 33 view .LVU158
 680              	.LBE84:
 681              	.LBE83:
  73:Controller.cpp ****             currentAlgorithm_ = ALG_YIN;
 682              		.loc 1 73 13 is_stmt 1 view .LVU159
 683 008e 2946     		mov	r1, r5
  73:Controller.cpp ****             currentAlgorithm_ = ALG_YIN;
 684              		.loc 1 73 31 is_stmt 0 view .LVU160
 685 0090 6573     		strb	r5, [r4, #13]
 686 0092 E9E7     		b	.L31
 687              	.L45:
  87:Controller.cpp ****             setBypass(false);
 688              		.loc 1 87 13 is_stmt 1 view .LVU161
 689              	.LVL51:
 690              	.LBB85:
 691              	.LBI85:
  48:Controller.cpp **** void Controller::setBypass(bool bypass) {
 692              		.loc 1 48 6 view .LVU162
 693              	.LBB86:
  49:Controller.cpp **** 	bypass_ = bypass;
 694              		.loc 1 49 2 view .LVU163
  49:Controller.cpp **** 	bypass_ = bypass;
 695              		.loc 1 49 10 is_stmt 0 view .LVU164
 696 0094 0025     		movs	r5, #0
  50:Controller.cpp **** 	m_pitchDetectorLeft->setBypass(bypass);
 697              		.loc 1 50 32 view .LVU165
 698 0096 2068     		ldr	r0, [r4]
 699 0098 2946     		mov	r1, r5
  49:Controller.cpp **** 	bypass_ = bypass;
 700              		.loc 1 49 10 view .LVU166
 701 009a 2573     		strb	r5, [r4, #12]
  50:Controller.cpp **** 	m_pitchDetectorLeft->setBypass(bypass);
 702              		.loc 1 50 2 is_stmt 1 view .LVU167
  50:Controller.cpp **** 	m_pitchDetectorLeft->setBypass(bypass);
 703              		.loc 1 50 32 is_stmt 0 view .LVU168
 704 009c FFF7FEFF 		bl	_ZN13PitchDetector9setBypassEb
 705              	.LVL52:
  51:Controller.cpp **** 	m_pitchDetectorRight->setBypass(bypass);
 706              		.loc 1 51 2 is_stmt 1 view .LVU169
  51:Controller.cpp **** 	m_pitchDetectorRight->setBypass(bypass);
 707              		.loc 1 51 33 is_stmt 0 view .LVU170
 708 00a0 2946     		mov	r1, r5
 709 00a2 6068     		ldr	r0, [r4, #4]
 710 00a4 FFF7FEFF 		bl	_ZN13PitchDetector9setBypassEb
ARM GAS  C:\Users\micke\AppData\Local\Temp\ccVFxgtH.s 			page 22


 711              	.LVL53:
  51:Controller.cpp **** 	m_pitchDetectorRight->setBypass(bypass);
 712              		.loc 1 51 33 view .LVU171
 713              	.LBE86:
 714              	.LBE85:
  88:Controller.cpp ****             currentAlgorithm_ = ALG_AUTOCORRELATION;
 715              		.loc 1 88 13 is_stmt 1 view .LVU172
  88:Controller.cpp ****             currentAlgorithm_ = ALG_AUTOCORRELATION;
 716              		.loc 1 88 31 is_stmt 0 view .LVU173
 717 00a8 0123     		movs	r3, #1
 718 00aa 1946     		mov	r1, r3
 719 00ac 6373     		strb	r3, [r4, #13]
 720 00ae C8E7     		b	.L35
 721              	.L32:
  78:Controller.cpp ****             setBypass(true);
 722              		.loc 1 78 13 is_stmt 1 view .LVU174
 723              	.LVL54:
 724              	.LBB87:
 725              	.LBI87:
  48:Controller.cpp **** void Controller::setBypass(bool bypass) {
 726              		.loc 1 48 6 view .LVU175
 727              	.LBB88:
  49:Controller.cpp **** 	bypass_ = bypass;
 728              		.loc 1 49 2 view .LVU176
  49:Controller.cpp **** 	bypass_ = bypass;
 729              		.loc 1 49 10 is_stmt 0 view .LVU177
 730 00b0 0125     		movs	r5, #1
  50:Controller.cpp **** 	m_pitchDetectorLeft->setBypass(bypass);
 731              		.loc 1 50 32 view .LVU178
 732 00b2 2068     		ldr	r0, [r4]
 733 00b4 2946     		mov	r1, r5
  49:Controller.cpp **** 	bypass_ = bypass;
 734              		.loc 1 49 10 view .LVU179
 735 00b6 2573     		strb	r5, [r4, #12]
  50:Controller.cpp **** 	m_pitchDetectorLeft->setBypass(bypass);
 736              		.loc 1 50 2 is_stmt 1 view .LVU180
  50:Controller.cpp **** 	m_pitchDetectorLeft->setBypass(bypass);
 737              		.loc 1 50 32 is_stmt 0 view .LVU181
 738 00b8 FFF7FEFF 		bl	_ZN13PitchDetector9setBypassEb
 739              	.LVL55:
  51:Controller.cpp **** 	m_pitchDetectorRight->setBypass(bypass);
 740              		.loc 1 51 2 is_stmt 1 view .LVU182
  51:Controller.cpp **** 	m_pitchDetectorRight->setBypass(bypass);
 741              		.loc 1 51 33 is_stmt 0 view .LVU183
 742 00bc 2946     		mov	r1, r5
 743 00be 6068     		ldr	r0, [r4, #4]
 744 00c0 FFF7FEFF 		bl	_ZN13PitchDetector9setBypassEb
 745              	.LVL56:
 746              	.LBE88:
 747              	.LBE87:
  80:Controller.cpp ****         m_pitchDetectorLeft->setAlgorithm(currentAlgorithm_);
 748              		.loc 1 80 42 view .LVU184
 749 00c4 617B     		ldrb	r1, [r4, #13]	@ zero_extendqisi2
 750              	.LBB90:
 751              	.LBB89:
  53:Controller.cpp **** }
 752              		.loc 1 53 1 view .LVU185
ARM GAS  C:\Users\micke\AppData\Local\Temp\ccVFxgtH.s 			page 23


 753 00c6 CFE7     		b	.L31
 754              	.LVL57:
 755              	.L36:
  53:Controller.cpp **** }
 756              		.loc 1 53 1 view .LVU186
 757              	.LBE89:
 758              	.LBE90:
  93:Controller.cpp ****             setBypass(true);
 759              		.loc 1 93 13 is_stmt 1 view .LVU187
 760              	.LBB91:
 761              	.LBI91:
  48:Controller.cpp **** void Controller::setBypass(bool bypass) {
 762              		.loc 1 48 6 view .LVU188
 763              	.LBB92:
  49:Controller.cpp **** 	bypass_ = bypass;
 764              		.loc 1 49 2 view .LVU189
  50:Controller.cpp **** 	m_pitchDetectorLeft->setBypass(bypass);
 765              		.loc 1 50 32 is_stmt 0 view .LVU190
 766 00c8 2068     		ldr	r0, [r4]
 767 00ca 2946     		mov	r1, r5
  49:Controller.cpp **** 	bypass_ = bypass;
 768              		.loc 1 49 10 view .LVU191
 769 00cc 2573     		strb	r5, [r4, #12]
  50:Controller.cpp **** 	m_pitchDetectorLeft->setBypass(bypass);
 770              		.loc 1 50 2 is_stmt 1 view .LVU192
  50:Controller.cpp **** 	m_pitchDetectorLeft->setBypass(bypass);
 771              		.loc 1 50 32 is_stmt 0 view .LVU193
 772 00ce FFF7FEFF 		bl	_ZN13PitchDetector9setBypassEb
 773              	.LVL58:
  51:Controller.cpp **** 	m_pitchDetectorRight->setBypass(bypass);
 774              		.loc 1 51 2 is_stmt 1 view .LVU194
  51:Controller.cpp **** 	m_pitchDetectorRight->setBypass(bypass);
 775              		.loc 1 51 33 is_stmt 0 view .LVU195
 776 00d2 2946     		mov	r1, r5
 777 00d4 6068     		ldr	r0, [r4, #4]
 778 00d6 FFF7FEFF 		bl	_ZN13PitchDetector9setBypassEb
 779              	.LVL59:
 780              	.LBE92:
 781              	.LBE91:
  95:Controller.cpp ****         m_pitchDetectorLeft->setAlgorithm(currentAlgorithm_);
 782              		.loc 1 95 42 view .LVU196
 783 00da 617B     		ldrb	r1, [r4, #13]	@ zero_extendqisi2
 784              	.LBB94:
 785              	.LBB93:
  53:Controller.cpp **** }
 786              		.loc 1 53 1 view .LVU197
 787 00dc B1E7     		b	.L35
 788              	.LBE93:
 789              	.LBE94:
 790              		.cfi_endproc
 791              	.LFE2577:
 793 00de 00BF     		.text
 794              	.Letext0:
 795              		.file 6 "c:\\program files\\daisytoolchain\\arm-none-eabi\\include\\machine\\_default_types.h"
 796              		.file 7 "c:\\program files\\daisytoolchain\\arm-none-eabi\\include\\sys\\_stdint.h"
 797              		.file 8 "c:\\program files\\daisytoolchain\\arm-none-eabi\\include\\stdint.h"
 798              		.file 9 "c:\\program files\\daisytoolchain\\lib\\gcc\\arm-none-eabi\\10.2.1\\include\\stddef.h"
ARM GAS  C:\Users\micke\AppData\Local\Temp\ccVFxgtH.s 			page 24


 799              		.file 10 "c:\\program files\\daisytoolchain\\arm-none-eabi\\include\\c++\\10.2.1\\cmath"
 800              		.file 11 "c:\\program files\\daisytoolchain\\arm-none-eabi\\include\\c++\\10.2.1\\bits\\std_abs.h"
 801              		.file 12 "c:\\program files\\daisytoolchain\\arm-none-eabi\\include\\c++\\10.2.1\\cstdlib"
 802              		.file 13 "c:\\program files\\daisytoolchain\\arm-none-eabi\\include\\c++\\10.2.1\\cstdint"
 803              		.file 14 "c:\\program files\\daisytoolchain\\arm-none-eabi\\include\\c++\\10.2.1\\arm-none-eabi\\t
 804              		.file 15 "c:\\program files\\daisytoolchain\\arm-none-eabi\\include\\c++\\10.2.1\\type_traits"
 805              		.file 16 "c:\\program files\\daisytoolchain\\arm-none-eabi\\include\\c++\\10.2.1\\debug\\debug.h"
 806              		.file 17 "c:\\program files\\daisytoolchain\\arm-none-eabi\\include\\c++\\10.2.1\\bits\\algorithmf
 807              		.file 18 "c:\\program files\\daisytoolchain\\arm-none-eabi\\include\\c++\\10.2.1\\bits\\stl_pair.h
 808              		.file 19 "c:\\program files\\daisytoolchain\\arm-none-eabi\\include\\c++\\10.2.1\\bits\\exception_
 809              		.file 20 "c:\\program files\\daisytoolchain\\arm-none-eabi\\include\\c++\\10.2.1\\initializer_list
 810              		.file 21 "c:\\program files\\daisytoolchain\\arm-none-eabi\\include\\c++\\10.2.1\\cstdarg"
 811              		.file 22 "c:\\program files\\daisytoolchain\\arm-none-eabi\\include\\c++\\10.2.1\\cstdio"
 812              		.file 23 "c:\\program files\\daisytoolchain\\arm-none-eabi\\include\\c++\\10.2.1\\cstring"
 813              		.file 24 "c:\\program files\\daisytoolchain\\arm-none-eabi\\include\\c++\\10.2.1\\bits\\predefined
 814              		.file 25 "c:\\program files\\daisytoolchain\\arm-none-eabi\\include\\sys\\_types.h"
 815              		.file 26 "c:\\program files\\daisytoolchain\\arm-none-eabi\\include\\sys\\reent.h"
 816              		.file 27 "c:\\program files\\daisytoolchain\\arm-none-eabi\\include\\sys\\lock.h"
 817              		.file 28 "c:\\program files\\daisytoolchain\\arm-none-eabi\\include\\math.h"
 818              		.file 29 "c:\\program files\\daisytoolchain\\arm-none-eabi\\include\\stdlib.h"
 819              		.file 30 "c:\\program files\\daisytoolchain\\arm-none-eabi\\include\\c++\\10.2.1\\math.h"
 820              		.file 31 "c:\\program files\\daisytoolchain\\arm-none-eabi\\include\\c++\\10.2.1\\stdlib.h"
 821              		.file 32 "../../libDaisy//src/daisy_core.h"
 822              		.file 33 "../../libDaisy//src/per/tim.h"
 823              		.file 34 "../../libDaisy//src/sys/system.h"
 824              		.file 35 "../../libDaisy//src/per/qspi.h"
 825              		.file 36 "../../libDaisy//src/per/dac.h"
 826              		.file 37 "../../libDaisy//src/per/sai.h"
 827              		.file 38 "../../libDaisy//src/hid/audio.h"
 828              		.file 39 "../../libDaisy//src/per/adc.h"
 829              		.file 40 "../../libDaisy//src/per/uart.h"
 830              		.file 41 "../../libDaisy//src/hid/MidiEvent.h"
 831              		.file 42 "../../libDaisy//src/hid/midi_parser.h"
 832              		.file 43 "../../libDaisy//src/hid/usb.h"
 833              		.file 44 "../../libDaisy//src/hid/midi.h"
 834              		.file 45 "../../libDaisy//src/util/FIFO.h"
 835              		.file 46 "../../libDaisy//src/hid/encoder.h"
 836              		.file 47 "../../libDaisy//src/hid/ctrl.h"
 837              		.file 48 "../../libDaisy//src/hid/logger_impl.h"
 838              		.file 49 "../../libDaisy//src/util/wav_format.h"
 839              		.file 50 "../../libDaisy//src/hid/led.h"
 840              		.file 51 "../../libDaisy//src/hid/rgb_led.h"
 841              		.file 52 "../../libDaisy//src/dev/max11300.h"
 842              		.file 53 "../../libDaisy//src/hid/logger.h"
 843              		.file 54 "../../libDaisy//src/per/gpio.h"
 844              		.file 55 "../../libDaisy//src/dev/sdram.h"
 845              		.file 56 "c:\\program files\\daisytoolchain\\lib\\gcc\\arm-none-eabi\\10.2.1\\include\\stdarg.h"
 846              		.file 57 "c:\\program files\\daisytoolchain\\arm-none-eabi\\include\\stdio.h"
 847              		.file 58 "c:\\program files\\daisytoolchain\\arm-none-eabi\\include\\string.h"
 848              		.file 59 "Algorithm.h"
 849              		.file 60 "PitchDetector.h"
 850              		.file 61 "Controller.h"
 851              		.file 62 "../../libDaisy//src/dev/sr_595.h"
 852              		.file 63 "<built-in>"
ARM GAS  C:\Users\micke\AppData\Local\Temp\ccVFxgtH.s 			page 25

